ccopy_reg
_reconstructor
p0
(cnltk.classify.naivebayes
NaiveBayesClassifier
p1
c__builtin__
object
p2
Ntp3
Rp4
(dp5
S'_labels'
p6
(lp7
S'1'
p8
aS'2'
p9
aS'3'
p10
aS'4'
p11
aS'6'
p12
aS'5'
p13
aS'14'
p14
aS'7'
p15
aS'8'
p16
aS'11'
p17
aS'15'
p18
aS'9'
p19
aS'10'
p20
aS'13'
p21
aS'12'
p22
asS'_feature_probdist'
p23
(dp24
(g9
S'before'
p25
tp26
g0
(cnltk.probability
ELEProbDist
p27
g2
Ntp28
Rp29
(dp30
S'_gamma'
p31
F0.5
sS'_N'
p32
I5947
sS'_freqdist'
p33
g0
(cnltk.probability
FreqDist
p34
c__builtin__
dict
p35
(dp36
S'PRP$'
p37
I130
sS'VBG'
p38
I48
sS'VBD'
p39
I72
sS'VBN'
p40
I62
sS','
p41
I84
sS"''"
p42
I12
sS'VBP'
p43
I53
sS'WDT'
p44
I16
sS'JJ'
p45
I603
sS'WP'
p46
I16
sS'VBZ'
p47
I53
sS'DT'
p48
I1917
sS'RP'
p49
I3
sS'NN'
p50
I679
sS'POS'
p51
I149
sS'.'
p52
I70
sS'TO'
p53
I137
sS'PRP'
p54
I140
sS'RB'
p55
I114
sS':'
p56
I10
sS'NNS'
p57
I88
sS'NNP'
p58
I364
sS'``'
p59
I16
sS'WRB'
p60
I5
sS'CC'
p61
I102
sS'RBS'
p62
I2
sS'RBR'
p63
I1
sS'CD'
p64
I508
sS'EX'
p65
I1
sS'IN'
p66
I300
sS'WP$'
p67
I6
sS'MD'
p68
I62
sS'NNPS'
p69
I7
sS'JJS'
p70
I24
sS'JJR'
p71
I27
sS'VB'
p72
I66
stp73
Rp74
(dp75
g32
I5947
sS'_max_cache'
p76
NsS'_item_cache'
p77
NsS'_Nr_cache'
p78
NsbsS'_bins'
p79
I39
sS'_divisor'
p80
F5966.5
sbs(g14
S'word'
p81
tp82
g0
(g27
g2
Ntp83
Rp84
(dp85
g31
F0.5
sg32
I370
sg33
g0
(g34
g35
(dp86
S'point.n'
p87
I336
sS'go.v'
p88
I33
sS'turn.v'
p89
I1
stp90
Rp91
(dp92
g32
I370
sg76
Nsg77
Nsg78
Nsbsg79
I101
sg80
F420.5
sbs(g18
g81
tp93
g0
(g27
g2
Ntp94
Rp95
(dp96
g31
F0.5
sg32
I18
sg33
g0
(g34
g35
(dp97
S'turn.v'
p98
I18
stp99
Rp100
(dp101
g32
I18
sg76
Nsg77
Nsg78
Nsbsg79
I101
sg80
F68.5
sbs(g8
g25
tp102
g0
(g27
g2
Ntp103
Rp104
(dp105
g31
F0.5
sg32
I12095
sg33
g0
(g34
g35
(dp106
g37
I117
sg38
I105
sg39
I274
sg40
I160
sg41
I782
sg42
I395
sg43
I135
sg44
I76
sg45
I940
sg46
I65
sg47
I232
sg48
I818
sg49
I9
sg50
I1854
sg51
I137
sg52
I112
sg53
I635
sg54
I1041
sg55
I659
sg56
I32
sg57
I534
sg58
I1146
sg59
I77
sg60
I19
sg61
I317
sS'PDT'
p107
I2
sg62
I7
sg63
I7
sg64
I214
sS'-NONE-'
p108
I2
sg65
I2
sg66
I598
sg67
I2
sg68
I260
sg69
I15
sg70
I17
sg71
I49
sg72
I249
stp109
Rp110
(dp111
g32
I12095
sg76
Nsg77
Nsg78
Nsbsg79
I39
sg80
F12114.5
sbs(g12
S'after'
p112
tp113
g0
(g27
g2
Ntp114
Rp115
(dp116
g31
F0.5
sg32
I575
sg33
g0
(g34
g35
(dp117
g60
I1
sg37
I3
sg38
I4
sg39
I39
sg61
I10
sg66
I227
sg59
I2
sg40
I1
sg51
I1
sg42
I6
sg43
I16
sg45
I8
sg46
I1
sg47
I27
sg48
I28
sg64
I3
sg68
I15
sg50
I25
sg41
I38
sg52
I50
sg53
I14
sg54
I6
sg55
I11
sg56
I5
sg57
I22
sg71
I2
sg58
I10
stp118
Rp119
(dp120
g32
I575
sg76
Nsg77
Nsg78
Nsbsg79
I36
sg80
F593.0
sbs(g21
g112
tp121
g0
(g27
g2
Ntp122
Rp123
(dp124
g31
F0.5
sg32
I6
sg33
g0
(g34
g35
(dp125
g48
I1
sg66
I5
stp126
Rp127
(dp128
g32
I6
sg76
Nsg77
Nsg78
Nsbsg79
I36
sg80
F24.0
sbs(g10
g81
tp129
g0
(g27
g2
Ntp130
Rp131
(dp132
g31
F0.5
sg32
I1808
sg33
g0
(g34
g35
(dp133
S'begin.v'
p134
I1
sS'come.v'
p135
I18
sS'system.n'
p136
I2
sS'describe.v'
p137
I3
sS'effect.n'
p138
I30
sS'fix.v'
p139
I5
sS'development.n'
p140
I34
sS'chance.n'
p141
I4
sS'point.n'
p142
I18
sS'position.n'
p143
I57
sS'claim.v'
p144
I1
sS'end.v'
p145
I3
sS'raise.v'
p146
I6
sS'turn.v'
p147
I13
sS'say.v'
p148
I5
sS'regard.v'
p149
I10
sS'complete.v'
p150
I1
sS'lead.v'
p151
I14
sS'prove.v'
p152
I1
sS'kill.v'
p153
I2
sS'do.v'
p154
I1
sS'exchange.n'
p155
I261
sS'find.v'
p156
I14
sS'future.n'
p157
I269
sS'buy.v'
p158
I4
sS'order.n'
p159
I6
sS'area.n'
p160
I10
sS'network.n'
p161
I50
sS'bill.n'
p162
I263
sS'source.n'
p163
I56
sS'state.n'
p164
I24
sS'build.v'
p165
I35
sS'examine.v'
p166
I1
sS'care.v'
p167
I7
sS'ask.v'
p168
I4
sS'go.v'
p169
I1
sS'authority.n'
p170
I46
sS'recall.v'
p171
I1
sS'work.v'
p172
I3
sS'join.v'
p173
I11
sS'power.n'
p174
I120
sS'capital.n'
p175
I1
sS'see.v'
p176
I71
sS'move.n'
p177
I13
sS'report.v'
p178
I3
sS'value.n'
p179
I12
sS'base.n'
p180
I38
sS'start.v'
p181
I21
sS'feel.v'
p182
I55
sS'keep.v'
p183
I21
sS'hour.n'
p184
I1
sS'hold.v'
p185
I6
sS'set.v'
p186
I38
sS'job.n'
p187
I7
sS'president.n'
p188
I106
stp189
Rp190
(dp191
g32
I1808
sg76
Nsg77
Nsg78
Nsbsg79
I101
sg80
F1858.5
sbs(g20
g81
tp192
g0
(g27
g2
Ntp193
Rp194
(dp195
g31
F0.5
sg32
I14
sg33
g0
(g34
g35
(dp196
S'carrier.n'
p197
I1
sS'go.v'
p198
I9
sS'hold.v'
p199
I4
stp200
Rp201
(dp202
g32
I14
sg76
Nsg77
Nsg78
Nsbsg79
I101
sg80
F64.5
sbs(g19
g81
tp203
g0
(g27
g2
Ntp204
Rp205
(dp206
g31
F0.5
sg32
I18
sg33
g0
(g34
g35
(dp207
S'carrier.n'
p208
I1
sS'come.v'
p209
I4
sS'set.v'
p210
I1
sS'work.v'
p211
I9
sS'kill.v'
p212
I1
sS'go.v'
p213
I2
stp214
Rp215
(dp216
g32
I18
sg76
Nsg77
Nsg78
Nsbsg79
I101
sg80
F68.5
sbs(g15
g81
tp217
g0
(g27
g2
Ntp218
Rp219
(dp220
g31
F0.5
sg32
I132
sg33
g0
(g34
g35
(dp221
S'come.v'
p222
I4
sS'turn.v'
p223
I3
sS'defense.n'
p224
I35
sS'point.n'
p225
I3
sS'base.n'
p226
I23
sS'start.v'
p227
I1
sS'carrier.n'
p228
I4
sS'go.v'
p229
I52
sS'position.n'
p230
I1
sS'order.n'
p231
I1
sS'set.v'
p232
I3
sS'raise.v'
p233
I2
stp234
Rp235
(dp236
g32
I132
sg76
Nsg77
Nsg78
Nsbsg79
I101
sg80
F182.5
sbs(g11
g81
tp237
g0
(g27
g2
Ntp238
Rp239
(dp240
g31
F0.5
sg32
I617
sg33
g0
(g34
g35
(dp241
S'begin.v'
p242
I2
sS'come.v'
p243
I3
sS'fix.v'
p244
I9
sS'chance.n'
p245
I39
sS'point.n'
p246
I31
sS'position.n'
p247
I74
sS'move.n'
p248
I4
sS'raise.v'
p249
I19
sS'turn.v'
p250
I18
sS'say.v'
p251
I37
sS'carrier.n'
p252
I14
sS'lead.v'
p253
I29
sS'kill.v'
p254
I3
sS'exchange.n'
p255
I1
sS'space.n'
p256
I1
sS'find.v'
p257
I1
sS'future.n'
p258
I20
sS'buy.v'
p259
I3
sS'order.n'
p260
I2
sS'keep.v'
p261
I25
sS'bill.n'
p262
I37
sS'source.n'
p263
I15
sS'ask.v'
p264
I1
sS'defense.n'
p265
I23
sS'go.v'
p266
I26
sS'authority.n'
p267
I1
sS'work.v'
p268
I4
sS'join.v'
p269
I11
sS'see.v'
p270
I9
sS'people.n'
p271
I5
sS'end.v'
p272
I14
sS'start.v'
p273
I3
sS'hold.v'
p274
I14
sS'system.n'
p275
I66
sS'hour.n'
p276
I1
sS'part.n'
p277
I1
sS'set.v'
p278
I51
stp279
Rp280
(dp281
g32
I617
sg76
Nsg77
Nsg78
Nsbsg79
I101
sg80
F667.5
sbs(g8
g112
tp282
g0
(g27
g2
Ntp283
Rp284
(dp285
g31
F0.5
sg32
I12095
sg33
g0
(g34
g35
(dp286
g37
I242
sg38
I170
sg39
I321
sg40
I9
sg41
I854
sg42
I48
sg43
I165
sg44
I2
sg45
I317
sg46
I98
sg47
I141
sg48
I1552
sS'$'
p287
I16
sg50
I830
sg51
I3
sg52
I1169
sg53
I507
sg54
I690
sg55
I341
sg56
I117
sg57
I536
sg58
I599
sg59
I35
sg60
I53
sg61
I425
sS'LS'
p288
I2
sg64
I81
sg65
I21
sg66
I2510
sg68
I158
sg70
I5
sg71
I75
sg72
I3
stp289
Rp290
(dp291
g32
I12095
sg76
Nsg77
Nsg78
Nsbsg79
I36
sg80
F12113.0
sbs(g16
g112
tp292
g0
(g27
g2
Ntp293
Rp294
(dp295
g31
F0.5
sg32
I128
sg33
g0
(g34
g35
(dp296
g37
I14
sg38
I3
sg66
I49
sg59
I1
sg64
I2
sg43
I1
sg45
I3
sg46
I1
sg48
I20
sg41
I1
sg50
I9
sg71
I2
sg52
I1
sg53
I2
sg54
I6
sg57
I11
sg58
I2
stp297
Rp298
(dp299
g32
I128
sg76
Nsg77
Nsg78
Nsbsg79
I36
sg80
F146.0
sbs(g12
g25
tp300
g0
(g27
g2
Ntp301
Rp302
(dp303
g31
F0.5
sg32
I575
sg33
g0
(g34
g35
(dp304
g37
I4
sg38
I8
sg39
I19
sg61
I5
sg66
I44
sg59
I1
sg40
I10
sg42
I2
sg43
I1
sg44
I2
sg45
I89
sg46
I2
sg47
I4
sg48
I77
sg64
I9
sg68
I7
sg49
I4
sg50
I106
sg51
I6
sg63
I1
sg70
I5
sg41
I13
sg52
I8
sg72
I12
sg53
I20
sg54
I28
sg55
I20
sg56
I2
sg57
I24
sg71
I6
sg58
I36
stp305
Rp306
(dp307
g32
I575
sg76
Nsg77
Nsg78
Nsbsg79
I39
sg80
F594.5
sbs(g16
g81
tp308
g0
(g27
g2
Ntp309
Rp310
(dp311
g31
F0.5
sg32
I128
sg33
g0
(g34
g35
(dp312
S'come.v'
p313
I10
sS'turn.v'
p314
I1
sS'point.n'
p315
I1
sS'hold.v'
p316
I34
sS'defense.n'
p317
I11
sS'go.v'
p318
I2
sS'carrier.n'
p319
I3
sS'set.v'
p320
I2
sS'work.v'
p321
I14
sS'keep.v'
p322
I50
stp323
Rp324
(dp325
g32
I128
sg76
Nsg77
Nsg78
Nsbsg79
I101
sg80
F178.5
sbs(g16
g25
tp326
g0
(g27
g2
Ntp327
Rp328
(dp329
g31
F0.5
sg32
I128
sg33
g0
(g34
g35
(dp330
g59
I2
sg38
I1
sg39
I2
sg61
I5
sg40
I2
sg41
I7
sg43
I2
sg44
I2
sg45
I1
sg66
I11
sg47
I4
sg48
I4
sg64
I1
sg68
I9
sg50
I9
sg51
I1
sg72
I7
sg53
I22
sg54
I11
sg55
I11
sg56
I1
sg57
I2
sg58
I11
stp331
Rp332
(dp333
g32
I128
sg76
Nsg77
Nsg78
Nsbsg79
I39
sg80
F147.5
sbs(g21
g25
tp334
g0
(g27
g2
Ntp335
Rp336
(dp337
g31
F0.5
sg32
I6
sg33
g0
(g34
g35
(dp338
g68
I1
sg72
I1
sg53
I1
sg61
I1
sg48
I1
sg57
I1
stp339
Rp340
(dp341
g32
I6
sg76
Nsg77
Nsg78
Nsbsg79
I39
sg80
F25.5
sbs(g22
g112
tp342
g0
(g27
g2
Ntp343
Rp344
(dp345
g31
F0.5
sg32
I1
sg33
g0
(g34
g35
(dp346
g66
I1
stp347
Rp348
(dp349
g32
I1
sg76
Nsg77
Nsg78
Nsbsg79
I36
sg80
F19.0
sbs(g11
g112
tp350
g0
(g27
g2
Ntp351
Rp352
(dp353
g31
F0.5
sg32
I617
sg33
g0
(g34
g35
(dp354
g60
I2
sg37
I5
sg38
I5
sg39
I14
sg61
I13
sg66
I231
sg40
I1
sg64
I3
sg42
I1
sg43
I5
sg44
I1
sg45
I16
sg46
I1
sg47
I13
sg48
I60
sg68
I5
sg69
I1
sg287
I3
sg50
I32
sg41
I38
sg52
I60
sg53
I19
sg54
I30
sg55
I12
sg56
I7
sg57
I26
sg71
I1
sg58
I12
stp355
Rp356
(dp357
g32
I617
sg76
Nsg77
Nsg78
Nsbsg79
I36
sg80
F635.0
sbs(g15
g112
tp358
g0
(g27
g2
Ntp359
Rp360
(dp361
g31
F0.5
sg32
I132
sg33
g0
(g34
g35
(dp362
g68
I4
sg37
I2
sg50
I10
sg61
I8
sg41
I6
sg52
I3
sg42
I1
sg53
I59
sg54
I2
sg55
I1
sg66
I18
sg48
I2
sg57
I16
stp363
Rp364
(dp365
g32
I132
sg76
Nsg77
Nsg78
Nsbsg79
I36
sg80
F150.0
sbs(g19
g112
tp366
g0
(g27
g2
Ntp367
Rp368
(dp369
g31
F0.5
sg32
I18
sg33
g0
(g34
g35
(dp370
g53
I4
sg54
I1
sg55
I1
sg66
I10
sg48
I1
sg41
I1
stp371
Rp372
(dp373
g32
I18
sg76
Nsg77
Nsg78
Nsbsg79
I36
sg80
F36.0
sbs(g20
g112
tp374
g0
(g27
g2
Ntp375
Rp376
(dp377
g31
F0.5
sg32
I14
sg33
g0
(g34
g35
(dp378
g53
I1
sg37
I1
sg55
I3
sg50
I1
sg66
I6
sg48
I2
stp379
Rp380
(dp381
g32
I14
sg76
Nsg77
Nsg78
Nsbsg79
I36
sg80
F32.0
sbs(g15
g25
tp382
g0
(g27
g2
Ntp383
Rp384
(dp385
g31
F0.5
sg32
I132
sg33
g0
(g34
g35
(dp386
g37
I3
sg39
I3
sg61
I5
sg66
I8
sg51
I6
sg43
I20
sg44
I2
sg45
I14
sg46
I1
sg47
I11
sg48
I12
sg64
I2
sg68
I1
sg49
I1
sg50
I10
sg41
I5
sg52
I2
sg53
I1
sg54
I5
sg55
I16
sg56
I1
sg58
I3
stp387
Rp388
(dp389
g32
I132
sg76
Nsg77
Nsg78
Nsbsg79
I39
sg80
F151.5
sbs(g21
g81
tp390
g0
(g27
g2
Ntp391
Rp392
(dp393
g31
F0.5
sg32
I6
sg33
g0
(g34
g35
(dp394
S'go.v'
p395
I3
sS'turn.v'
p396
I3
stp397
Rp398
(dp399
g32
I6
sg76
Nsg77
Nsg78
Nsbsg79
I101
sg80
F56.5
sbs(g19
g25
tp400
g0
(g27
g2
Ntp401
Rp402
(dp403
g31
F0.5
sg32
I18
sg33
g0
(g34
g35
(dp404
g72
I3
sg50
I2
sg39
I2
sg40
I1
sg53
I1
sg44
I1
sg54
I3
sg55
I3
sg48
I1
sg57
I1
stp405
Rp406
(dp407
g32
I18
sg76
Nsg77
Nsg78
Nsbsg79
I39
sg80
F37.5
sbs(g20
g25
tp408
g0
(g27
g2
Ntp409
Rp410
(dp411
g31
F0.5
sg32
I14
sg33
g0
(g34
g35
(dp412
g50
I4
sg57
I6
sg40
I1
sg55
I2
sg52
I1
stp413
Rp414
(dp415
g32
I14
sg76
Nsg77
Nsg78
Nsbsg79
I39
sg80
F33.5
sbs(g12
g81
tp416
g0
(g27
g2
Ntp417
Rp418
(dp419
g31
F0.5
sg32
I575
sg33
g0
(g34
g35
(dp420
S'come.v'
p421
I4
sS'source.n'
p422
I38
sS'ask.v'
p423
I3
sS'point.n'
p424
I2
sS'position.n'
p425
I7
sS'space.n'
p426
I2
sS'raise.v'
p427
I30
sS'turn.v'
p428
I32
sS'see.v'
p429
I4
sS'defense.n'
p430
I5
sS'lead.v'
p431
I4
sS'base.n'
p432
I7
sS'keep.v'
p433
I1
sS'carrier.n'
p434
I86
sS'hold.v'
p435
I5
sS'set.v'
p436
I34
sS'order.n'
p437
I284
sS'buy.v'
p438
I27
stp439
Rp440
(dp441
g32
I575
sg76
Nsg77
Nsg78
Nsbsg79
I101
sg80
F625.5
sbs(g8
g81
tp442
g0
(g27
g2
Ntp443
Rp444
(dp445
g31
F0.5
sg32
I12095
sg33
g0
(g34
g35
(dp446
S'begin.v'
p447
I69
sS'come.v'
p448
I55
sS'remember.v'
p449
I120
sS'produce.v'
p450
I99
sS'improve.v'
p451
I31
sS'complain.v'
p452
I31
sS'chance.n'
p453
I46
sS'claim.v'
p454
I45
sS'plant.n'
p455
I297
sS'raise.v'
p456
I46
sS'join.v'
p457
I5
sS'need.v'
p458
I132
sS'value.n'
p459
I24
sS'regard.v'
p460
I23
sS'complete.v'
p461
I41
sS'prove.v'
p462
I24
sS'rate.n'
p463
I854
sS'replace.v'
p464
I44
sS'future.n'
p465
I61
sS'describe.v'
p466
I53
sS'buy.v'
p467
I129
sS'promise.v'
p468
I44
sS'occur.v'
p469
I37
sS'people.n'
p470
I687
sS'state.n'
p471
I80
sS'announce.v'
p472
I87
sS'care.v'
p473
I54
sS'ask.v'
p474
I226
sS'defense.n'
p475
I15
sS'authority.n'
p476
I39
sS'recall.v'
p477
I46
sS'drug.n'
p478
I123
sS'work.v'
p479
I149
sS'policy.n'
p480
I258
sS'power.n'
p481
I119
sS'capital.n'
p482
I258
sS'find.v'
p483
I146
sS'move.n'
p484
I4
sS'report.v'
p485
I121
sS'point.n'
p486
I5
sS'base.n'
p487
I23
sS'system.n'
p488
I130
sS'affect.v'
p489
I45
sS'area.n'
p490
I240
sS'hope.v'
p491
I103
sS'share.n'
p492
I57
sS'hold.v'
p493
I3
sS'job.n'
p494
I140
sS'contribute.v'
p495
I11
sS'cause.v'
p496
I73
sS'explain.v'
p497
I75
sS'approve.v'
p498
I50
sS'effect.n'
p499
I146
sS'fix.v'
p500
I3
sS'development.n'
p501
I141
sS'avoid.v'
p502
I55
sS'enjoy.v'
p503
I44
sS'position.n'
p504
I7
sS'allow.v'
p505
I98
sS'prepare.v'
p506
I26
sS'say.v'
p507
I2113
sS'management.n'
p508
I111
sS'disclose.v'
p509
I55
sS'express.v'
p510
I47
sS'turn.v'
p511
I179
sS'see.v'
p512
I33
sS'exist.v'
p513
I50
sS'lead.v'
p514
I56
sS'grant.v'
p515
I12
sS'kill.v'
p516
I105
sS'do.v'
p517
I190
sS'exchange.n'
p518
I49
sS'space.n'
p519
I30
sS'propose.v'
p520
I29
sS'order.n'
p521
I46
sS'remove.v'
p522
I47
sS'keep.v'
p523
I135
sS'network.n'
p524
I29
sS'purchase.v'
p525
I35
sS'believe.v'
p526
I162
sS'source.n'
p527
I4
sS'examine.v'
p528
I15
sS'go.v'
p529
I96
sS'receive.v'
p530
I127
sS'rush.v'
p531
I26
sS'build.v'
p532
I78
sS'negotiate.v'
p533
I25
sS'maintain.v'
p534
I49
sS'end.v'
p535
I85
sS'condition.n'
p536
I109
sS'start.v'
p537
I27
sS'part.n'
p538
I394
sS'attempt.v'
p539
I40
sS'feel.v'
p540
I285
sS'hour.n'
p541
I158
sS'estimate.v'
p542
I74
sS'set.v'
p543
I35
sS'president.n'
p544
I758
stp545
Rp546
(dp547
g32
I12095
sg76
Nsg77
Nsg78
Nsbsg79
I101
sg80
F12145.5
sbs(g9
g81
tp548
g0
(g27
g2
Ntp549
Rp550
(dp551
g31
F0.5
sg32
I5947
sg33
g0
(g34
g35
(dp552
S'begin.v'
p553
I42
sS'come.v'
p554
I41
sS'produce.v'
p555
I16
sS'complain.v'
p556
I1
sS'chance.n'
p557
I2
sS'claim.v'
p558
I8
sS'plant.n'
p559
I50
sS'raise.v'
p560
I32
sS'need.v'
p561
I63
sS'value.n'
p562
I299
sS'regard.v'
p563
I7
sS'prove.v'
p564
I24
sS'rate.n'
p565
I155
sS'capital.n'
p566
I18
sS'carrier.n'
p567
I2
sS'buy.v'
p568
I1
sS'promise.v'
p569
I6
sS'occur.v'
p570
I10
sS'move.n'
p571
I249
sS'state.n'
p572
I513
sS'announce.v'
p573
I1
sS'care.v'
p574
I8
sS'ask.v'
p575
I112
sS'defense.n'
p576
I21
sS'recall.v'
p577
I2
sS'drug.n'
p578
I82
sS'work.v'
p579
I49
sS'policy.n'
p580
I73
sS'power.n'
p581
I12
sS'replace.v'
p582
I2
sS'find.v'
p583
I2
sS'people.n'
p584
I55
sS'report.v'
p585
I4
sS'base.n'
p586
I1
sS'system.n'
p587
I250
sS'do.v'
p588
I15
sS'keep.v'
p589
I15
sS'share.n'
p590
I2479
sS'hold.v'
p591
I18
sS'job.n'
p592
I41
sS'contribute.v'
p593
I24
sS'explain.v'
p594
I10
sS'describe.v'
p595
I1
sS'effect.n'
p596
I2
sS'fix.v'
p597
I12
sS'development.n'
p598
I5
sS'point.n'
p599
I6
sS'enjoy.v'
p600
I12
sS'position.n'
p601
I55
sS'allow.v'
p602
I10
sS'prepare.v'
p603
I28
sS'say.v'
p604
I4
sS'management.n'
p605
I173
sS'turn.v'
p606
I45
sS'see.v'
p607
I39
sS'exist.v'
p608
I2
sS'lead.v'
p609
I36
sS'grant.v'
p610
I7
sS'source.n'
p611
I39
sS'exchange.n'
p612
I3
sS'approve.v'
p613
I3
sS'space.n'
p614
I32
sS'propose.v'
p615
I5
sS'order.n'
p616
I4
sS'area.n'
p617
I76
sS'network.n'
p618
I73
sS'build.v'
p619
I6
sS'remember.v'
p620
I1
sS'examine.v'
p621
I10
sS'go.v'
p622
I15
sS'receive.v'
p623
I9
sS'rush.v'
p624
I2
sS'join.v'
p625
I41
sS'start.v'
p626
I143
sS'maintain.v'
p627
I12
sS'end.v'
p628
I33
sS'condition.n'
p629
I23
sS'believe.v'
p630
I40
sS'part.n'
p631
I74
sS'feel.v'
p632
I7
sS'hour.n'
p633
I27
sS'set.v'
p634
I2
sS'president.n'
p635
I15
stp636
Rp637
(dp638
g32
I5947
sg76
Nsg77
Nsg78
Nsbsg79
I101
sg80
F5997.5
sbs(g13
g112
tp639
g0
(g27
g2
Ntp640
Rp641
(dp642
g31
F0.5
sg32
I525
sg33
g0
(g34
g35
(dp643
g60
I7
sg37
I15
sg38
I6
sg39
I21
sg61
I6
sg59
I1
sg40
I1
sg64
I4
sg42
I3
sg43
I4
sg45
I5
sg66
I144
sg47
I2
sg48
I38
sg68
I8
sg287
I2
sg50
I49
sg41
I53
sg52
I51
sg53
I20
sg54
I21
sg55
I14
sg56
I9
sg57
I30
sg71
I1
sg58
I10
stp644
Rp645
(dp646
g32
I525
sg76
Nsg77
Nsg78
Nsbsg79
I36
sg80
F543.0
sbs(g17
g112
tp647
g0
(g27
g2
Ntp648
Rp649
(dp650
g31
F0.5
sg32
I27
sg33
g0
(g34
g35
(dp651
g53
I9
sg48
I1
sg52
I3
sg54
I1
sg66
I13
stp652
Rp653
(dp654
g32
I27
sg76
Nsg77
Nsg78
Nsbsg79
I36
sg80
F45.0
sbs(g11
g25
tp655
g0
(g27
g2
Ntp656
Rp657
(dp658
g31
F0.5
sg32
I617
sg33
g0
(g34
g35
(dp659
g37
I24
sg38
I14
sg39
I12
sg61
I10
sg107
I3
sg59
I2
sg72
I9
sg40
I4
sg43
I16
sg44
I3
sg45
I76
sg46
I7
sg47
I10
sg48
I74
sg64
I7
sg68
I23
sg50
I136
sg51
I14
sg63
I1
sg70
I2
sg41
I13
sg52
I3
sg53
I50
sg54
I18
sg55
I23
sg66
I9
sg57
I18
sg71
I1
sg58
I35
stp660
Rp661
(dp662
g32
I617
sg76
Nsg77
Nsg78
Nsbsg79
I39
sg80
F636.5
sbs(g17
g25
tp663
g0
(g27
g2
Ntp664
Rp665
(dp666
g31
F0.5
sg32
I27
sg33
g0
(g34
g35
(dp667
g68
I3
sg72
I2
sg50
I1
sg41
I2
sg52
I1
sg53
I1
sg43
I2
sg44
I1
sg54
I5
sg55
I2
sg47
I1
sg57
I3
sg58
I3
stp668
Rp669
(dp670
g32
I27
sg76
Nsg77
Nsg78
Nsbsg79
I39
sg80
F46.5
sbs(g10
g25
tp671
g0
(g27
g2
Ntp672
Rp673
(dp674
g31
F0.5
sg32
I1808
sg33
g0
(g34
g35
(dp675
g37
I21
sg38
I26
sg39
I16
sg40
I11
sg51
I10
sg42
I4
sg43
I27
sg44
I4
sg45
I254
sg46
I4
sg47
I14
sg48
I454
sg49
I1
sg50
I281
sg41
I52
sg52
I22
sg53
I59
sg54
I62
sg55
I45
sg56
I15
sg57
I51
sg58
I125
sg59
I7
sg61
I35
sg63
I2
sg64
I32
sg108
I2
sg66
I109
sg68
I23
sg69
I2
sg70
I7
sg71
I5
sg72
I26
stp676
Rp677
(dp678
g32
I1808
sg76
Nsg77
Nsg78
Nsbsg79
I39
sg80
F1827.5
sbs(g10
g112
tp679
g0
(g27
g2
Ntp680
Rp681
(dp682
g31
F0.5
sg32
I1808
sg33
g0
(g34
g35
(dp683
g60
I8
sg37
I23
sg38
I27
sg39
I112
sg61
I62
sg66
I280
sg59
I6
sg41
I152
sg42
I5
sg43
I45
sg44
I2
sg40
I2
sg45
I60
sg46
I2
sg47
I99
sg48
I139
sg64
I8
sg68
I53
sg287
I1
sg50
I182
sg51
I2
sg52
I145
sg72
I4
sg53
I90
sg54
I37
sg55
I55
sg56
I18
sg57
I177
sg71
I3
sg58
I9
stp684
Rp685
(dp686
g32
I1808
sg76
Nsg77
Nsg78
Nsbsg79
I36
sg80
F1826.0
sbs(g14
g25
tp687
g0
(g27
g2
Ntp688
Rp689
(dp690
g31
F0.5
sg32
I370
sg33
g0
(g34
g35
(dp691
g72
I1
sg39
I1
sg61
I2
sg59
I1
sg64
I220
sg43
I1
sg45
I4
sg66
I2
sg47
I1
sg48
I9
sg68
I6
sg50
I104
sg51
I1
sg52
I1
sg53
I3
sg54
I1
sg55
I4
sg57
I5
sg58
I3
stp692
Rp693
(dp694
g32
I370
sg76
Nsg77
Nsg78
Nsbsg79
I39
sg80
F389.5
sbs(g22
g25
tp695
g0
(g27
g2
Ntp696
Rp697
(dp698
g31
F0.5
sg32
I1
sg33
g0
(g34
g35
(dp699
g50
I1
stp700
Rp701
(dp702
g32
I1
sg76
Nsg77
Nsg78
Nsbsg79
I39
sg80
F20.5
sbs(g22
g81
tp703
g0
(g27
g2
Ntp704
Rp705
(dp706
g31
F0.5
sg32
I1
sg33
g0
(g34
g35
(dp707
S'turn.v'
p708
I1
stp709
Rp710
(dp711
g32
I1
sg76
Nsg77
Nsg78
Nsbsg79
I101
sg80
F51.5
sbs(g13
g25
tp712
g0
(g27
g2
Ntp713
Rp714
(dp715
g31
F0.5
sg32
I525
sg33
g0
(g34
g35
(dp716
g37
I16
sg38
I9
sg39
I9
sg61
I19
sg66
I15
sg59
I1
sg51
I5
sg43
I7
sg44
I7
sg40
I9
sg45
I78
sg46
I8
sg67
I1
sg47
I7
sg48
I75
sg64
I27
sg68
I14
sg69
I1
sg50
I61
sg63
I2
sg41
I11
sg52
I2
sg72
I15
sg53
I13
sg54
I26
sg55
I19
sg56
I2
sg57
I8
sg71
I1
sg58
I57
stp717
Rp718
(dp719
g32
I525
sg76
Nsg77
Nsg78
Nsbsg79
I39
sg80
F544.5
sbs(g14
g112
tp720
g0
(g27
g2
Ntp721
Rp722
(dp723
g31
F0.5
sg32
I370
sg33
g0
(g34
g35
(dp724
g55
I8
sg50
I15
sg61
I8
sg41
I47
sg52
I43
sg53
I62
sg54
I1
sg45
I2
sg66
I118
sg47
I1
sg48
I8
sg57
I2
sg71
I44
sg58
I11
stp725
Rp726
(dp727
g32
I370
sg76
Nsg77
Nsg78
Nsbsg79
I36
sg80
F388.0
sbs(g17
g81
tp728
g0
(g27
g2
Ntp729
Rp730
(dp731
g31
F0.5
sg32
I27
sg33
g0
(g34
g35
(dp732
S'come.v'
p733
I17
sS'turn.v'
p734
I8
sS'go.v'
p735
I2
stp736
Rp737
(dp738
g32
I27
sg76
Nsg77
Nsg78
Nsbsg79
I101
sg80
F77.5
sbs(g18
g25
tp739
g0
(g27
g2
Ntp740
Rp741
(dp742
g31
F0.5
sg32
I18
sg33
g0
(g34
g35
(dp743
g68
I1
sg50
I4
sg39
I1
sg53
I3
sg54
I2
sg55
I2
sg46
I1
sg47
I1
sg57
I3
stp744
Rp745
(dp746
g32
I18
sg76
Nsg77
Nsg78
Nsbsg79
I39
sg80
F37.5
sbs(g13
g81
tp747
g0
(g27
g2
Ntp748
Rp749
(dp750
g31
F0.5
sg32
I525
sg33
g0
(g34
g35
(dp751
S'bill.n'
p752
I104
sS'come.v'
p753
I30
sS'system.n'
p754
I2
sS'do.v'
p755
I1
sS'fix.v'
p756
I3
sS'ask.v'
p757
I2
sS'point.n'
p758
I67
sS'go.v'
p759
I3
sS'position.n'
p760
I67
sS'authority.n'
p761
I4
sS'work.v'
p762
I2
sS'raise.v'
p763
I12
sS'capital.n'
p764
I1
sS'see.v'
p765
I2
sS'people.n'
p766
I7
sS'turn.v'
p767
I18
sS'say.v'
p768
I2
sS'defense.n'
p769
I10
sS'lead.v'
p770
I26
sS'hold.v'
p771
I45
sS'start.v'
p772
I19
sS'exchange.n'
p773
I49
sS'space.n'
p774
I2
sS'find.v'
p775
I11
sS'part.n'
p776
I12
sS'set.v'
p777
I8
sS'order.n'
p778
I3
sS'keep.v'
p779
I13
stp780
Rp781
(dp782
g32
I525
sg76
Nsg77
Nsg78
Nsbsg79
I101
sg80
F575.5
sbs(g9
g112
tp783
g0
(g27
g2
Ntp784
Rp785
(dp786
g31
F0.5
sg32
I5947
sg33
g0
(g34
g35
(dp787
g37
I53
sg38
I112
sg39
I303
sg40
I25
sg41
I1169
sg42
I14
sg43
I69
sg44
I4
sg45
I203
sg46
I3
sg47
I162
sg48
I308
sg287
I1
sg50
I328
sg51
I5
sg52
I782
sg53
I283
sg54
I64
sg55
I114
sg56
I80
sg57
I243
sg58
I61
sg59
I9
sg60
I22
sg61
I139
sg64
I10
sg108
I1
sg65
I1
sg66
I1258
sg68
I112
sg70
I1
sg71
I7
sg72
I1
stp788
Rp789
(dp790
g32
I5947
sg76
Nsg77
Nsg78
Nsbsg79
I36
sg80
F5965.0
sbs(g18
g112
tp791
g0
(g27
g2
Ntp792
Rp793
(dp794
g31
F0.5
sg32
I18
sg33
g0
(g34
g35
(dp795
g37
I2
sg50
I2
sg41
I1
sg53
I1
sg54
I2
sg55
I1
sg66
I5
sg48
I4
stp796
Rp797
(dp798
g32
I18
sg76
Nsg77
Nsg78
Nsbsg79
I36
sg80
F36.0
sbssS'_label_probdist'
p799
g0
(g27
g2
Ntp800
Rp801
(dp802
g31
F0.5
sg32
I22281
sg33
g0
(g34
g35
(dp803
g17
I27
sg20
I14
sg21
I6
sg22
I1
sg18
I18
sg14
I370
sg8
I12095
sg10
I1808
sg9
I5947
sg13
I525
sg11
I617
sg15
I132
sg12
I575
sg19
I18
sg16
I128
stp804
Rp805
(dp806
g32
I22281
sg76
Nsg77
(lp807
(g8
I12095
tp808
a(g9
I5947
tp809
a(g10
I1808
tp810
a(g11
I617
tp811
a(g12
I575
tp812
a(g13
I525
tp813
a(g14
I370
tp814
a(g15
I132
tp815
a(g16
I128
tp816
a(g17
I27
tp817
a(g18
I18
tp818
a(g19
I18
tp819
a(g20
I14
tp820
a(g21
I6
tp821
a(g22
I1
tp822
asg78
Nsbsg79
I15
sg80
F22288.5
sbsb.