ccollections
defaultdict
p0
(c__builtin__
dict
p1
tp2
Rp3
S'begin.v'
p4
(dp5
S'1'
p6
I69
sS'3'
p7
I1
sS'2'
p8
I42
sS'4'
p9
I2
ssS'complain.v'
p10
(dp11
g6
I31
sg8
I1
ssS'plant.n'
p12
(dp13
g6
I297
sg8
I50
ssS'need.v'
p14
(dp15
g6
I132
sg8
I63
ssS'carrier.n'
p16
(dp17
S'10'
p18
I1
sg8
I2
sg9
I14
sS'7'
p19
I4
sS'6'
p20
I86
sS'9'
p21
I1
sS'8'
p22
I3
ssS'occur.v'
p23
(dp24
g6
I37
sg8
I10
ssS'state.n'
p25
(dp26
g6
I80
sg7
I24
sg8
I513
ssS'announce.v'
p27
(dp28
g6
I87
sg8
I1
ssS'care.v'
p29
(dp30
g6
I54
sg7
I7
sg8
I8
ssS'ask.v'
p31
(dp32
g6
I226
sg7
I4
sg8
I112
sS'5'
p33
I2
sg9
I1
sg20
I3
ssS'defense.n'
p34
(dp35
g6
I15
sg8
I21
sg33
I10
sg9
I23
sg19
I35
sg20
I5
sg22
I11
ssS'capital.n'
p36
(dp37
g6
I258
sg7
I1
sg8
I18
sg33
I1
ssS'move.n'
p38
(dp39
g6
I4
sg7
I13
sg8
I249
sg9
I4
ssS'base.n'
p40
(dp41
g6
I23
sg7
I38
sg8
I1
sg19
I23
sg20
I7
ssS'share.n'
p42
(dp43
g6
I57
sg8
I2479
ssS'contribute.v'
p44
(dp45
g6
I11
sg8
I24
ssS'cause.v'
p46
(dp47
g6
I73
ssS'system.n'
p48
(dp49
g6
I130
sg7
I2
sg8
I250
sg33
I2
sg9
I66
ssS'fix.v'
p50
(dp51
g6
I3
sg7
I5
sg8
I12
sg33
I3
sg9
I9
ssS'avoid.v'
p52
(dp53
g6
I55
ssS'enjoy.v'
p54
(dp55
g6
I44
sg8
I12
ssS'disclose.v'
p56
(dp57
g6
I55
ssS'turn.v'
p58
(dp59
S'11'
p60
I8
sS'13'
p61
I3
sS'12'
p62
I1
sS'15'
p63
I18
sS'14'
p64
I1
sg6
I179
sg7
I13
sg8
I45
sg33
I18
sg9
I18
sg19
I3
sg20
I32
sg22
I1
ssS'see.v'
p65
(dp66
g6
I33
sg7
I71
sg8
I39
sg33
I2
sg9
I9
sg20
I4
ssS'lead.v'
p67
(dp68
g6
I56
sg7
I14
sg8
I36
sg33
I26
sg9
I29
sg20
I4
ssS'source.n'
p69
(dp70
g6
I4
sg7
I56
sg8
I39
sg9
I15
sg20
I38
ssS'exchange.n'
p71
(dp72
g6
I49
sg7
I261
sg8
I3
sg33
I49
sg9
I1
ssS'space.n'
p73
(dp74
g6
I30
sg8
I32
sg33
I2
sg9
I1
sg20
I2
ssS'order.n'
p75
(dp76
g6
I46
sg7
I6
sg8
I4
sg33
I3
sg9
I2
sg19
I1
sg20
I284
ssS'remove.v'
p77
(dp78
g6
I47
ssS'keep.v'
p79
(dp80
g6
I135
sg7
I21
sg8
I15
sg33
I13
sg9
I25
sg20
I1
sg22
I50
ssS'network.n'
p81
(dp82
g6
I29
sg7
I50
sg8
I73
ssS'purchase.v'
p83
(dp84
g6
I35
ssS'do.v'
p85
(dp86
g6
I190
sg7
I1
sg8
I15
sg33
I1
ssS'go.v'
p87
(dp88
S'11'
p89
I2
sS'10'
p90
I9
sS'13'
p91
I3
sS'14'
p92
I33
sg6
I96
sg7
I1
sg8
I15
sg33
I3
sg9
I26
sg19
I52
sg21
I2
sg22
I2
ssS'receive.v'
p93
(dp94
g6
I127
sg8
I9
ssS'end.v'
p95
(dp96
g6
I85
sg7
I3
sg8
I33
sg9
I14
ssS'start.v'
p97
(dp98
g6
I27
sg7
I21
sg8
I143
sg33
I19
sg9
I3
sg19
I1
ssS'part.n'
p99
(dp100
g6
I394
sg8
I74
sg33
I12
sg9
I1
ssS'attempt.v'
p101
(dp102
g6
I40
ssS'feel.v'
p103
(dp104
g6
I285
sg7
I55
sg8
I7
ssS'estimate.v'
p105
(dp106
g6
I74
ssS'set.v'
p107
(dp108
g6
I35
sg7
I38
sg8
I2
sg33
I8
sg9
I51
sg19
I3
sg20
I34
sg21
I1
sg22
I2
ssS'come.v'
p109
(dp110
S'11'
p111
I17
sg6
I55
sg7
I18
sg8
I41
sg33
I30
sg9
I3
sg19
I4
sg20
I4
sg21
I4
sg22
I10
ssS'produce.v'
p112
(dp113
g6
I99
sg8
I16
ssS'improve.v'
p114
(dp115
g6
I31
ssS'chance.n'
p116
(dp117
g6
I46
sg7
I4
sg8
I2
sg9
I39
ssS'claim.v'
p118
(dp119
g6
I45
sg7
I1
sg8
I8
ssS'raise.v'
p120
(dp121
g6
I46
sg7
I6
sg8
I32
sg33
I12
sg9
I19
sg19
I2
sg20
I30
ssS'value.n'
p122
(dp123
g6
I24
sg7
I12
sg8
I299
ssS'regard.v'
p124
(dp125
g6
I23
sg7
I10
sg8
I7
ssS'complete.v'
p126
(dp127
g6
I41
sg7
I1
ssS'prove.v'
p128
(dp129
g6
I24
sg7
I1
sg8
I24
ssS'rate.n'
p130
(dp131
g6
I854
sg8
I155
ssS'future.n'
p132
(dp133
g6
I61
sg7
I269
sg9
I20
ssS'buy.v'
p134
(dp135
g6
I129
sg7
I4
sg8
I1
sg9
I3
sg20
I27
ssS'promise.v'
p136
(dp137
g6
I44
sg8
I6
ssS'bill.n'
p138
(dp139
g7
I263
sg33
I104
sg9
I37
ssS'build.v'
p140
(dp141
g6
I78
sg7
I35
sg8
I6
ssS'approve.v'
p142
(dp143
g6
I50
sg8
I3
ssS'authority.n'
p144
(dp145
g6
I39
sg7
I46
sg33
I4
sg9
I1
ssS'recall.v'
p146
(dp147
g6
I46
sg7
I1
sg8
I2
ssS'drug.n'
p148
(dp149
g6
I123
sg8
I82
ssS'work.v'
p150
(dp151
g6
I149
sg7
I3
sg8
I49
sg33
I2
sg9
I4
sg21
I9
sg22
I14
ssS'policy.n'
p152
(dp153
g6
I258
sg8
I73
ssS'power.n'
p154
(dp155
g6
I119
sg7
I120
sg8
I12
ssS'replace.v'
p156
(dp157
g6
I44
sg8
I2
ssS'find.v'
p158
(dp159
g6
I146
sg7
I14
sg8
I2
sg33
I11
sg9
I1
ssS'people.n'
p160
(dp161
g6
I687
sg8
I55
sg33
I7
sg9
I5
ssS'report.v'
p162
(dp163
g6
I121
sg7
I3
sg8
I4
ssS'point.n'
p164
(dp165
S'14'
p166
I336
sg6
I5
sg7
I18
sg8
I6
sg33
I67
sg9
I31
sg19
I3
sg20
I2
sg22
I1
ssS'affect.v'
p167
(dp168
g6
I45
ssS'hope.v'
p169
(dp170
g6
I103
ssS'hold.v'
p171
(dp172
S'10'
p173
I4
sg6
I3
sg7
I6
sg8
I18
sg33
I45
sg9
I14
sg20
I5
sg22
I34
ssS'job.n'
p174
(dp175
g6
I140
sg7
I7
sg8
I41
ssS'explain.v'
p176
(dp177
g6
I75
sg8
I10
ssS'describe.v'
p178
(dp179
g6
I53
sg7
I3
sg8
I1
ssS'effect.n'
p180
(dp181
g6
I146
sg7
I30
sg8
I2
ssS'development.n'
p182
(dp183
g6
I141
sg7
I34
sg8
I5
ssS'position.n'
p184
(dp185
g6
I7
sg7
I57
sg8
I55
sg33
I67
sg9
I74
sg19
I1
sg20
I7
ssS'allow.v'
p186
(dp187
g6
I98
sg8
I10
ssS'prepare.v'
p188
(dp189
g6
I26
sg8
I28
ssS'management.n'
p190
(dp191
g6
I111
sg8
I173
ssS'express.v'
p192
(dp193
g6
I47
ssS'rush.v'
p194
(dp195
g6
I26
sg8
I2
ssS'exist.v'
p196
(dp197
g6
I50
sg8
I2
ssS'grant.v'
p198
(dp199
g6
I12
sg8
I7
ssS'kill.v'
p200
(dp201
g6
I105
sg21
I1
sg7
I2
sg9
I3
ssS'propose.v'
p202
(dp203
g6
I29
sg8
I5
ssS'area.n'
p204
(dp205
g6
I240
sg7
I10
sg8
I76
ssS'remember.v'
p206
(dp207
g6
I120
sg8
I1
ssS'examine.v'
p208
(dp209
g6
I15
sg7
I1
sg8
I10
ssS'say.v'
p210
(dp211
g6
I2113
sg7
I5
sg8
I4
sg33
I2
sg9
I37
ssS'join.v'
p212
(dp213
g6
I5
sg7
I11
sg8
I41
sg9
I11
ssS'negotiate.v'
p214
(dp215
g6
I25
ssS'maintain.v'
p216
(dp217
g6
I49
sg8
I12
ssS'condition.n'
p218
(dp219
g6
I109
sg8
I23
ssS'believe.v'
p220
(dp221
g6
I162
sg8
I40
ssS'hour.n'
p222
(dp223
g6
I158
sg7
I1
sg8
I27
sg9
I1
ssS'president.n'
p224
(dp225
g6
I758
sg7
I106
sg8
I15
ss.