ccollections
defaultdict
p0
(c__builtin__
dict
p1
tp2
Rp3
S'11'
p4
(dp5
S'bf-PRP'
p6
I5
sS'bf-VBP'
p7
I2
sS'af-IN'
p8
I13
sS'bf-NNP'
p9
I3
sS'bf-NNS'
p10
I3
sS'af-NN'
p11
I3
sS'af-PRP'
p12
I1
sS'bf-WDT'
p13
I1
sS'bf-VBZ'
p14
I1
sS'bf-NN'
p15
I2
sS'bf-TO'
p16
I1
sS'bf-VB'
p17
I2
sS'af-DT'
p18
I1
sS'bf-RB'
p19
I2
sS'bf-,'
p20
I2
sS'af-TO'
p21
I9
sS'bf-MD'
p22
I3
ssS'10'
p23
(dp24
S'bf-VBN'
p25
I1
sS'af-IN'
p26
I6
sS'bf-NNS'
p27
I6
sS'af-PRP$'
p28
I1
sS'bf-NN'
p29
I5
sS'af-NN'
p30
I1
sS'af-DT'
p31
I2
sS'bf-RB'
p32
I2
sS'af-RB'
p33
I3
sS'af-TO'
p34
I1
ssS'13'
p35
(dp36
S'af-IN'
p37
I5
sS'bf-NNS'
p38
I1
sS'bf-TO'
p39
I1
sS'bf-VB'
p40
I1
sS'af-DT'
p41
I1
sS'bf-DT'
p42
I1
sS'bf-CC'
p43
I1
sS'bf-MD'
p44
I1
ssS'12'
p45
(dp46
S'bf-NN'
p47
I1
sS'af-IN'
p48
I1
ssS'15'
p49
(dp50
S'af-PRP$'
p51
I2
sS'bf-WP'
p52
I1
sS'af-IN'
p53
I5
sS'af-RB'
p54
I1
sS'bf-NNS'
p55
I3
sS'af-NN'
p56
I2
sS'af-PRP'
p57
I2
sS'af-,'
p58
I1
sS'bf-VBZ'
p59
I1
sS'bf-NN'
p60
I4
sS'bf-VBD'
p61
I1
sS'bf-PRP'
p62
I2
sS'af-DT'
p63
I4
sS'bf-RB'
p64
I2
sS'bf-TO'
p65
I3
sS'af-TO'
p66
I1
sS'bf-MD'
p67
I1
ssS'14'
p68
(dp69
S'bf-LS'
p70
I11
sS'bf-CC'
p71
I2
sS'af-JJ'
p72
I2
sS'bf-CD'
p73
I207
sS'af-,'
p74
I47
sS'bf-``'
p75
I1
sS'af-RB'
p76
I8
sS'af-TO'
p77
I62
sS'bf-MD'
p78
I6
sS'bf-IN'
p79
I2
sS'af-PRP'
p80
I1
sS'af-CC'
p81
I8
sS'af-NN'
p82
I58
sS'af-NNP'
p83
I11
sS'af-NNS'
p84
I2
sS'bf-VBP'
p85
I1
sS'af-IN'
p86
I118
sS'bf-POS'
p87
I1
sS'bf-VBZ'
p88
I1
sS'bf-NN'
p89
I105
sS'bf-VBD'
p90
I1
sS'bf-PRP'
p91
I1
sS'bf-DT'
p92
I9
sS'bf--NONE-'
p93
I2
sS'bf-JJ'
p94
I4
sS'bf-NNP'
p95
I3
sS'bf-NNS'
p96
I5
sS'bf-TO'
p97
I3
sS'bf-VB'
p98
I1
sS'af-DT'
p99
I8
sS'bf-RB'
p100
I4
sS'af-VBZ'
p101
I1
sS'af-JJR'
p102
I44
ssS'1'
p103
(dp104
S'bf-LS'
p105
I1
sS'af-$'
p106
I16
sS'bf-WRB'
p107
I19
sS'bf-CC'
p108
I317
sS'af-JJ'
p109
I317
sS'af-.'
p110
I13
sS'bf-CD'
p111
I210
sS'af-,'
p112
I854
sS'bf-``'
p113
I83
sS'bf-PDT'
p114
I2
sS'af-POS'
p115
I3
sS'af-EX'
p116
I21
sS'bf-NNPS'
p117
I11
sS'af-:'
p118
I110
sS'af-RB'
p119
I341
sS'af-TO'
p120
I507
sS'bf--NONE-'
p121
I2
sS'bf-MD'
p122
I260
sS'af-WDT'
p123
I2
sS'bf-IN'
p124
I616
sS'af-VBG'
p125
I170
sS'bf-EX'
p126
I2
sS'bf-WP$'
p127
I2
sS'af-PRP'
p128
I690
sS'af-VB'
p129
I3
sS'af-WP'
p130
I98
sS'af-CC'
p131
I425
sS'bf-RBR'
p132
I8
sS'bf-.'
p133
I11
sS'af-CD'
p134
I78
sS'bf-,'
p135
I782
sS'bf-TO'
p136
I635
sS'af-NNP'
p137
I585
sS'af-NNS'
p138
I548
sS'bf-:'
p139
I27
sS'af-MD'
p140
I158
sS'af-VBZ'
p141
I141
sS"bf-''"
p142
I395
sS'bf-VBP'
p143
I137
sS'af-IN'
p144
I2510
sS'af-WRB'
p145
I53
sS'bf-POS'
p146
I137
sS'bf-PRP$'
p147
I119
sS'bf-WDT'
p148
I76
sS'bf-VBZ'
p149
I232
sS'bf-NN'
p150
I2080
sS'bf-VBD'
p151
I274
sS'bf-JJS'
p152
I23
sS'bf-PRP'
p153
I1042
sS'bf-DT'
p154
I817
sS'af-``'
p155
I35
sS'bf-VBN'
p156
I163
sS'bf-<S>'
p157
I5
sS'bf-WP'
p158
I65
sS'af-VBP'
p159
I165
sS"af-''"
p160
I48
sS'bf-RBS'
p161
I2
sS'af-PRP$'
p162
I242
sS'bf-JJ'
p163
I947
sS'bf-NNP'
p164
I977
sS'bf-NNS'
p165
I551
sS'af-VBD'
p166
I321
sS'af-LS'
p167
I5
sS'af-NN'
p168
I1994
sS'bf-VB'
p169
I250
sS'af-VBN'
p170
I9
sS'af-DT'
p171
I1553
sS'bf-RB'
p172
I650
sS'bf-JJR'
p173
I50
sS'bf-VBG'
p174
I106
sS'bf-RP'
p175
I9
sS'af-JJR'
p176
I75
sS'af-JJS'
p177
I5
ssS'3'
p178
(dp179
S'bf-PRP'
p180
I62
sS'af-$'
p181
I1
sS'bf-CC'
p182
I35
sS'af-JJ'
p183
I60
sS'bf-CD'
p184
I32
sS'af-,'
p185
I152
sS'bf-``'
p186
I8
sS'af-POS'
p187
I2
sS'af-CD'
p188
I8
sS'af-WDT'
p189
I2
sS'af-:'
p190
I16
sS'af-RB'
p191
I55
sS'af-TO'
p192
I90
sS'bf-MD'
p193
I24
sS'bf-IN'
p194
I110
sS'af-IN'
p195
I280
sS'af-VB'
p196
I4
sS'af-WP'
p197
I2
sS'bf-PRP$'
p198
I24
sS'bf-RBR'
p199
I2
sS'bf--NONE-'
p200
I2
sS'bf-,'
p201
I52
sS'bf-RP'
p202
I1
sS'bf-NNPS'
p203
I2
sS'af-NN'
p204
I329
sS'af-NNP'
p205
I9
sS'af-NNS'
p206
I177
sS'bf-VB'
p207
I26
sS'af-MD'
p208
I53
sS"bf-''"
p209
I4
sS'bf-POS'
p210
I10
sS'bf-VBP'
p211
I27
sS'af-PRP'
p212
I37
sS'af-WRB'
p213
I8
sS'af-VBG'
p214
I27
sS'bf-WDT'
p215
I4
sS'bf-VBZ'
p216
I14
sS'bf-NN'
p217
I313
sS'bf-VBD'
p218
I15
sS'bf-VBG'
p219
I26
sS'bf-JJR'
p220
I5
sS'bf-:'
p221
I14
sS'bf-DT'
p222
I453
sS'af-``'
p223
I6
sS'bf-VBN'
p224
I12
sS'bf-WP'
p225
I4
sS'af-VBP'
p226
I45
sS"af-''"
p227
I5
sS'bf-RBS'
p228
I1
sS'af-PRP$'
p229
I23
sS'af-CC'
p230
I62
sS'bf-JJ'
p231
I251
sS'bf-NNP'
p232
I113
sS'af-VBZ'
p233
I99
sS'bf-JJS'
p234
I6
sS'bf-TO'
p235
I59
sS'af-VBD'
p236
I112
sS'af-JJR'
p237
I3
sS'af-DT'
p238
I139
sS'bf-RB'
p239
I45
sS'bf-NNS'
p240
I52
sS'af-VBN'
p241
I2
ssS'2'
p242
(dp243
S'af-$'
p244
I1
sS'af-<E>'
p245
I2
sS"bf-''"
p246
I12
sS'bf-CC'
p247
I102
sS'af-JJ'
p248
I203
sS'af-.'
p249
I5
sS'bf-CD'
p250
I414
sS'af-,'
p251
I1169
sS'bf-``'
p252
I16
sS'af-POS'
p253
I5
sS'af-EX'
p254
I1
sS'af-WDT'
p255
I4
sS'af-:'
p256
I80
sS'af-RB'
p257
I114
sS'bf-PRP$'
p258
I135
sS'bf-MD'
p259
I62
sS'bf-IN'
p260
I303
sS'bf-WRB'
p261
I5
sS'bf-EX'
p262
I1
sS'bf-WP$'
p263
I6
sS'af-IN'
p264
I1258
sS'af-VB'
p265
I1
sS'af-WP'
p266
I3
sS'af-CC'
p267
I139
sS'bf-RBR'
p268
I1
sS'af-CD'
p269
I9
sS'bf-,'
p270
I84
sS'bf-RP'
p271
I3
sS'bf-TO'
p272
I137
sS'af-NNP'
p273
I59
sS'af-NNS'
p274
I245
sS'bf-VB'
p275
I65
sS'af-MD'
p276
I112
sS'af-VBG'
p277
I112
sS'bf-VBP'
p278
I53
sS'af-PRP'
p279
I64
sS'af-WRB'
p280
I22
sS'af-TO'
p281
I283
sS'bf-POS'
p282
I149
sS'bf-WDT'
p283
I16
sS'bf-VBZ'
p284
I53
sS'bf-NN'
p285
I862
sS'bf-VBD'
p286
I72
sS'bf-JJS'
p287
I24
sS'bf-PRP'
p288
I140
sS'bf-:'
p289
I10
sS'bf-DT'
p290
I1913
sS'bf-NNPS'
p291
I7
sS'bf-VBN'
p292
I66
sS'af-``'
p293
I9
sS'bf-<S>'
p294
I1
sS'bf-WP'
p295
I16
sS'af-VBP'
p296
I69
sS"af-''"
p297
I14
sS'bf-RBS'
p298
I2
sS'af-PRP$'
p299
I53
sS'bf-JJ'
p300
I599
sS'bf-NNP'
p301
I340
sS'bf-NNS'
p302
I88
sS'bf-VBG'
p303
I48
sS'af--NONE-'
p304
I1
sS'af-LS'
p305
I1
sS'af-NN'
p306
I1103
sS'af-VBD'
p307
I303
sS'af-VBN'
p308
I25
sS'af-DT'
p309
I308
sS'bf-RB'
p310
I115
sS'bf-JJR'
p311
I27
sS'af-VBZ'
p312
I162
sS'af-JJR'
p313
I7
sS'af-JJS'
p314
I1
ssS'5'
p315
(dp316
S'af-$'
p317
I2
sS'bf-CC'
p318
I19
sS'af-JJ'
p319
I5
sS'af-.'
p320
I2
sS'bf-CD'
p321
I27
sS'af-,'
p322
I53
sS'bf-``'
p323
I1
sS'af-:'
p324
I9
sS'af-RB'
p325
I14
sS'af-TO'
p326
I20
sS'bf-MD'
p327
I14
sS'bf-IN'
p328
I15
sS'bf-WP'
p329
I8
sS'bf-PRP$'
p330
I16
sS'af-CD'
p331
I4
sS'bf-,'
p332
I11
sS'bf-TO'
p333
I13
sS'af-NNP'
p334
I10
sS'af-NNS'
p335
I30
sS'bf-VB'
p336
I15
sS'af-MD'
p337
I8
sS'bf-WP$'
p338
I1
sS'bf-POS'
p339
I5
sS'bf-VBP'
p340
I7
sS'af-IN'
p341
I144
sS'af-WRB'
p342
I7
sS'af-VBG'
p343
I6
sS'af-PRP$'
p344
I15
sS'bf-WDT'
p345
I7
sS'bf-VBZ'
p346
I7
sS'bf-NN'
p347
I63
sS'bf-VBD'
p348
I9
sS'bf-VBG'
p349
I9
sS'bf-PRP'
p350
I26
sS'bf-:'
p351
I2
sS'bf-DT'
p352
I75
sS'af-``'
p353
I1
sS'bf-VBN'
p354
I9
sS'af-VBP'
p355
I4
sS"af-''"
p356
I3
sS'bf-RBR'
p357
I2
sS'af-CC'
p358
I6
sS'bf-JJ'
p359
I77
sS'bf-NNP'
p360
I58
sS'bf-NNS'
p361
I9
sS'af-PRP'
p362
I21
sS'af-NN'
p363
I98
sS'af-VBD'
p364
I21
sS'af-JJR'
p365
I1
sS'af-DT'
p366
I38
sS'bf-RB'
p367
I19
sS'bf-JJR'
p368
I1
sS'af-VBZ'
p369
I2
sS'af-VBN'
p370
I1
ssS'4'
p371
(dp372
S'bf-PRP'
p373
I18
sS'af-$'
p374
I3
sS'bf-CC'
p375
I10
sS'af-JJ'
p376
I16
sS'bf-CD'
p377
I7
sS'af-,'
p378
I38
sS'bf-``'
p379
I2
sS'bf-PDT'
p380
I3
sS'af-WDT'
p381
I1
sS'af-:'
p382
I7
sS'af-RB'
p383
I12
sS'bf-PRP$'
p384
I24
sS'bf-MD'
p385
I23
sS'bf-IN'
p386
I9
sS'af-PRP'
p387
I30
sS'af-WP'
p388
I1
sS'af-CC'
p389
I13
sS'af-CD'
p390
I3
sS'bf-,'
p391
I13
sS'bf-TO'
p392
I50
sS'af-NNP'
p393
I12
sS'af-NNS'
p394
I26
sS'af-VBD'
p395
I14
sS'af-MD'
p396
I5
sS'af-NNPS'
p397
I1
sS'bf-VBP'
p398
I16
sS'af-IN'
p399
I231
sS'af-WRB'
p400
I2
sS'af-TO'
p401
I19
sS'bf-POS'
p402
I14
sS'af-PRP$'
p403
I5
sS'bf-WDT'
p404
I3
sS'bf-VBZ'
p405
I10
sS'bf-NN'
p406
I139
sS'bf-VBD'
p407
I13
sS'bf-VBG'
p408
I14
sS'bf-JJR'
p409
I1
sS'bf-DT'
p410
I74
sS'af-VBG'
p411
I5
sS'bf-VBN'
p412
I4
sS'bf-WP'
p413
I7
sS'af-VBP'
p414
I5
sS"af-''"
p415
I1
sS'bf-RBR'
p416
I1
sS'bf-JJ'
p417
I76
sS'bf-NNP'
p418
I34
sS'af-VBZ'
p419
I13
sS'bf-JJS'
p420
I2
sS'af-NN'
p421
I92
sS'bf-VB'
p422
I9
sS'af-VBN'
p423
I1
sS'af-DT'
p424
I60
sS'bf-RB'
p425
I23
sS'bf-NNS'
p426
I18
sS'af-JJR'
p427
I1
ssS'7'
p428
(dp429
S'bf-CC'
p430
I5
sS'bf-CD'
p431
I2
sS'af-,'
p432
I6
sS'af-RB'
p433
I1
sS'bf-PRP$'
p434
I3
sS'bf-MD'
p435
I1
sS'bf-IN'
p436
I8
sS'af-IN'
p437
I18
sS'af-CC'
p438
I8
sS'bf-,'
p439
I5
sS'bf-TO'
p440
I1
sS'af-NNS'
p441
I16
sS'af-MD'
p442
I4
sS'bf-VBP'
p443
I20
sS'af-PRP'
p444
I2
sS'af-TO'
p445
I59
sS'bf-POS'
p446
I6
sS'bf-WDT'
p447
I2
sS'bf-VBZ'
p448
I11
sS'bf-NN'
p449
I13
sS'bf-VBD'
p450
I3
sS'bf-PRP'
p451
I5
sS'bf-DT'
p452
I12
sS'bf-WP'
p453
I1
sS"af-''"
p454
I1
sS'af-PRP$'
p455
I2
sS'bf-JJ'
p456
I14
sS'bf-NNP'
p457
I3
sS'bf-RP'
p458
I1
sS'af-NN'
p459
I13
sS'af-DT'
p460
I2
sS'bf-RB'
p461
I16
ssS'6'
p462
(dp463
S'bf-CC'
p464
I5
sS'af-JJ'
p465
I8
sS'bf-CD'
p466
I9
sS'af-,'
p467
I38
sS'bf-``'
p468
I1
sS'af-POS'
p469
I1
sS'af-:'
p470
I4
sS'af-RB'
p471
I11
sS'af-TO'
p472
I14
sS'bf-MD'
p473
I7
sS'bf-IN'
p474
I44
sS'bf-WP'
p475
I2
sS'af-WP'
p476
I1
sS'af-CC'
p477
I10
sS'bf-RBR'
p478
I1
sS'af-CD'
p479
I3
sS'bf-,'
p480
I13
sS'bf-TO'
p481
I20
sS'af-NNP'
p482
I10
sS'af-NNS'
p483
I22
sS'bf-VB'
p484
I11
sS'af-MD'
p485
I15
sS"bf-''"
p486
I2
sS'bf-POS'
p487
I6
sS'bf-VBP'
p488
I1
sS'af-IN'
p489
I227
sS'af-WRB'
p490
I1
sS'af-VBG'
p491
I4
sS'bf-PRP$'
p492
I4
sS'bf-WDT'
p493
I2
sS'bf-VBZ'
p494
I3
sS'bf-NN'
p495
I126
sS'bf-VBD'
p496
I19
sS'bf-JJS'
p497
I5
sS'bf-PRP'
p498
I28
sS'bf-:'
p499
I2
sS'bf-DT'
p500
I77
sS'af-``'
p501
I2
sS'bf-VBN'
p502
I11
sS'af-VBP'
p503
I16
sS"af-''"
p504
I6
sS'af-PRP$'
p505
I3
sS'bf-JJ'
p506
I86
sS'bf-NNP'
p507
I27
sS'bf-RP'
p508
I4
sS'af-PRP'
p509
I6
sS'bf-VBG'
p510
I8
sS'af-NN'
p511
I76
sS'af-VBD'
p512
I39
sS'af-JJR'
p513
I2
sS'af-DT'
p514
I28
sS'bf-RB'
p515
I20
sS'bf-JJR'
p516
I6
sS'bf-NNS'
p517
I25
sS'af-VBZ'
p518
I27
sS'af-VBN'
p519
I1
ssS'9'
p520
(dp521
S'bf-PRP'
p522
I3
sS'af-RB'
p523
I1
sS'af-PRP'
p524
I1
sS'af-IN'
p525
I10
sS'bf-VBD'
p526
I2
sS'bf-NNS'
p527
I1
sS'bf-WDT'
p528
I1
sS'bf-NN'
p529
I2
sS'bf-RB'
p530
I3
sS'bf-TO'
p531
I1
sS'bf-VB'
p532
I3
sS'af-,'
p533
I1
sS'af-DT'
p534
I1
sS'bf-DT'
p535
I1
sS'bf-VBN'
p536
I1
sS'af-TO'
p537
I4
ssS'8'
p538
(dp539
S'bf-CC'
p540
I5
sS'af-JJ'
p541
I3
sS'bf-CD'
p542
I1
sS'af-,'
p543
I1
sS'bf-``'
p544
I3
sS'af-TO'
p545
I2
sS'bf-MD'
p546
I9
sS'bf-IN'
p547
I11
sS'af-WP'
p548
I1
sS'af-CD'
p549
I2
sS'bf-,'
p550
I7
sS'bf-TO'
p551
I22
sS'af-NNP'
p552
I2
sS'af-NNS'
p553
I11
sS'bf-VBP'
p554
I2
sS'af-IN'
p555
I49
sS'bf-POS'
p556
I1
sS'bf-WDT'
p557
I2
sS'bf-VBZ'
p558
I4
sS'bf-NN'
p559
I8
sS'bf-VBD'
p560
I2
sS'bf-VBG'
p561
I1
sS'bf-PRP'
p562
I11
sS'af-DT'
p563
I20
sS'bf-DT'
p564
I4
sS'af-``'
p565
I1
sS'bf-VBN'
p566
I2
sS'bf-<S>'
p567
I1
sS'af-VBP'
p568
I1
sS'af-PRP$'
p569
I14
sS'bf-JJ'
p570
I1
sS'bf-NNP'
p571
I11
sS'bf-NNS'
p572
I2
sS'af-PRP'
p573
I6
sS'af-NN'
p574
I10
sS'bf-VB'
p575
I7
sS'af-VBG'
p576
I3
sS'bf-RB'
p577
I11
sS'af-JJR'
p578
I2
ss.