ccollections
defaultdict
p0
(c__builtin__
dict
p1
tp2
Rp3
S'11'
p4
(dp5
S'c3-.'
p6
I3
sS'c1-.'
p7
I1
sS'c1-,'
p8
I2
sS'c1-VB'
p9
I2
sS'c1-NNP'
p10
I3
sS'c1-NNS'
p11
I3
sS'c2-VB'
p12
I1
sS'c2-CC'
p13
I1
sS'c1-VBZ'
p14
I1
sS'c1-NN'
p15
I1
sS'c4-NN'
p16
I6
sS'c1-VBP'
p17
I2
sS'c4-DT'
p18
I7
sS'c3-DT'
p19
I1
sS'c2-RB'
p20
I1
sS"c4-''"
p21
I1
sS'c2-IN'
p22
I1
sS'c2-NNS'
p23
I3
sS'c2-DT'
p24
I1
sS'c4-JJ'
p25
I1
sS'c2-WDT'
p26
I1
sS'c1-WDT'
p27
I1
sS'c2-JJ'
p28
I1
sS'c1-PRP'
p29
I5
sS'c4-NNS'
p30
I2
sS'c4-TO'
p31
I2
sS'c2-NN'
p32
I6
sS'c1-MD'
p33
I3
sS'c3-IN'
p34
I13
sS'c2-PRP'
p35
I4
sS'c4-VB'
p36
I2
sS'c1-RB'
p37
I2
sS'c2-WRB'
p38
I4
sS'c2-NNP'
p39
I3
sS'c1-TO'
p40
I1
sS'c3-PRP'
p41
I1
sS'c3-TO'
p42
I9
sS'c4-IN'
p43
I6
ssS'10'
p44
(dp45
S'c1-.'
p46
I1
sS'c4-CD'
p47
I1
sS'c1-NNS'
p48
I6
sS'c4-PRP$'
p49
I2
sS'c2-VB'
p50
I1
sS'c4-JJ'
p51
I2
sS'c2-CD'
p52
I1
sS'c1-NN'
p53
I4
sS'c2-TO'
p54
I1
sS'c4-NN'
p55
I2
sS'c4-DT'
p56
I2
sS'c1-VBN'
p57
I1
sS'c2-IN'
p58
I1
sS'c3-NN'
p59
I1
sS'c2-DT'
p60
I2
sS'c2-NNP'
p61
I1
sS'c3-DT'
p62
I2
sS'c4-NNS'
p63
I1
sS'c4-TO'
p64
I1
sS'c2-NN'
p65
I4
sS'c3-IN'
p66
I6
sS'c3-PRP$'
p67
I1
sS'c1-RB'
p68
I2
sS'c2-JJ'
p69
I2
sS'c3-RB'
p70
I3
sS'c2-MD'
p71
I1
sS'c3-TO'
p72
I1
sS'c4-IN'
p73
I3
ssS'13'
p74
(dp75
S'c2-DT'
p76
I1
sS'c1-CC'
p77
I1
sS'c4-NN'
p78
I2
sS'c4-.'
p79
I1
sS'c1-MD'
p80
I1
sS'c1-VB'
p81
I1
sS'c2-MD'
p82
I1
sS'c3-IN'
p83
I5
sS'c2-PRP'
p84
I1
sS'c4-PRP'
p85
I2
sS'c4-DT'
p86
I1
sS'c1-DT'
p87
I1
sS'c1-NNS'
p88
I1
sS'c2-JJ'
p89
I1
sS'c3-DT'
p90
I1
sS'c1-TO'
p91
I1
sS'c2-VBZ'
p92
I1
sS'c2-NNS'
p93
I1
ssS'12'
p94
(dp95
S'c1-NN'
p96
I1
sS'c3-IN'
p97
I1
sS'c2-JJ'
p98
I1
sS'c4-IN'
p99
I1
ssS'15'
p100
(dp101
S'c3-,'
p102
I1
sS'c3-PRP$'
p103
I2
sS'c4-JJ'
p104
I1
sS'c1-VBZ'
p105
I1
sS'c1-NN'
p106
I4
sS'c2-MD'
p107
I2
sS'c4-NN'
p108
I3
sS'c4-DT'
p109
I5
sS'c3-PRP'
p110
I2
sS'c2-RB'
p111
I1
sS"c4-''"
p112
I1
sS'c2-VBP'
p113
I1
sS'c1-WP'
p114
I1
sS'c3-NN'
p115
I2
sS'c2-JJ'
p116
I1
sS'c2-DT'
p117
I3
sS'c4-.'
p118
I1
sS'c2-NNP'
p119
I1
sS'c2-:'
p120
I1
sS'c3-DT'
p121
I4
sS'c1-VBD'
p122
I1
sS'c2-``'
p123
I1
sS'c1-PRP'
p124
I2
sS'c2-,'
p125
I1
sS'c2-NN'
p126
I5
sS'c1-MD'
p127
I1
sS'c4-VBP'
p128
I2
sS'c3-IN'
p129
I5
sS'c1-NNS'
p130
I3
sS'c4-VB'
p131
I1
sS'c1-RB'
p132
I2
sS'c2-NNS'
p133
I1
sS'c3-RB'
p134
I1
sS'c1-TO'
p135
I3
sS'c4-VBD'
p136
I1
sS'c3-TO'
p137
I1
sS'c4-IN'
p138
I3
ssS'14'
p139
(dp140
S'c4-CC'
p141
I37
sS'c1-CC'
p142
I2
sS'c1-POS'
p143
I1
sS'c2-JJR'
p144
I1
sS'c1-.'
p145
I1
sS'c4-CD'
p146
I51
sS'c3-,'
p147
I47
sS'c1-VB'
p148
I1
sS'c3-NNS'
p149
I2
sS'c2-VBG'
p150
I6
sS'c1-NNP'
p151
I3
sS'c1-NNS'
p152
I5
sS'c3-.'
p153
I42
sS'c4-PRP$'
p154
I6
sS'c2-JJS'
p155
I1
sS'c1-CD'
p156
I220
sS'c1-JJ'
p157
I4
sS'c2-VB'
p158
I1
sS'c4-JJ'
p159
I32
sS'c2-VBN'
p160
I7
sS'c3-JJ'
p161
I2
sS'c1-VBZ'
p162
I1
sS'c1-NN'
p163
I104
sS'c4-NNP'
p164
I19
sS'c2-MD'
p165
I2
sS'c4-NN'
p166
I17
sS'c1-VBP'
p167
I1
sS'c2-VBD'
p168
I82
sS'c4-DT'
p169
I78
sS'c2-VBZ'
p170
I1
sS'c3-JJR'
p171
I44
sS'c3-PRP'
p172
I1
sS'c3-CD'
p173
I1
sS'c2-RB'
p174
I29
sS'c2-TO'
p175
I16
sS'c1-VBD'
p176
I1
sS'c2-VBP'
p177
I1
sS'c2-IN'
p178
I64
sS'c3-NN'
p179
I15
sS'c2-NNS'
p180
I1
sS'c2-DT'
p181
I30
sS'c4-JJR'
p182
I1
sS'c4-.'
p183
I9
sS'c2-NNP'
p184
I1
sS'c4-,'
p185
I15
sS'c3-VBZ'
p186
I1
sS'c1-``'
p187
I1
sS'c2-RP'
p188
I7
sS'c2-:'
p189
I1
sS'c4-``'
p190
I2
sS'c1-DT'
p191
I9
sS'c2-CC'
p192
I7
sS'c3-DT'
p193
I8
sS"c4-''"
p194
I1
sS'c2-CD'
p195
I81
sS'c1-PRP'
p196
I1
sS'c2-,'
p197
I3
sS'c2-.'
p198
I2
sS'c4-NNS'
p199
I8
sS'c4-:'
p200
I1
sS'c3-NNP'
p201
I11
sS'c4-VBZ'
p202
I1
sS'c4-TO'
p203
I11
sS'c2-NN'
p204
I14
sS'c1-MD'
p205
I6
sS'c4-VBP'
p206
I1
sS'c4-VBD'
p207
I4
sS'c3-IN'
p208
I118
sS'c2-PRP'
p209
I3
sS'c4-VB'
p210
I7
sS'c1-RB'
p211
I4
sS'c4-VBN'
p212
I2
sS'c4-RB'
p213
I7
sS'c2-JJ'
p214
I8
sS'c3-RB'
p215
I8
sS'c3-CC'
p216
I8
sS'c1-IN'
p217
I2
sS'c1-TO'
p218
I3
sS'c2-WP'
p219
I1
sS'c3-TO'
p220
I62
sS'c4-IN'
p221
I57
sS'c4-VBG'
p222
I3
ssS'1'
p223
(dp224
S'c1-POS'
p225
I137
sS'c3-DT'
p226
I1554
sS'c2-WP$'
p227
I2
sS'c1-NNP'
p228
I1143
sS'c1-NNS'
p229
I535
sS"c2-''"
p230
I205
sS'c4-WDT'
p231
I36
sS'c2-VBN'
p232
I192
sS'c2-RP'
p233
I22
sS'c2-VBG'
p234
I155
sS'c2-VBD'
p235
I414
sS'c4-DT'
p236
I1566
sS'c2-VBZ'
p237
I203
sS'c1--NONE-'
p238
I2
sS'c2-RB'
p239
I299
sS'c2-VBP'
p240
I181
sS'c2-IN'
p241
I962
sS'c4-WP'
p242
I32
sS'c1-NNPS'
p243
I15
sS'c1-WDT'
p244
I76
sS'c1-EX'
p245
I2
sS'c1-MD'
p246
I260
sS'c3-WDT'
p247
I2
sS'c1-VB'
p248
I249
sS'c4-VB'
p249
I425
sS'c1-PDT'
p250
I2
sS'c3-JJS'
p251
I5
sS'c3-TO'
p252
I507
sS'c3-,'
p253
I864
sS'c1-CC'
p254
I317
sS'c3-.'
p255
I1125
sS'c2-JJR'
p256
I49
sS'c2-JJS'
p257
I23
sS'c3-$'
p258
I16
sS'c2-WP'
p259
I63
sS'c3-:'
p260
I117
sS'c2-RBR'
p261
I5
sS'c4-EX'
p262
I28
sS'c1-JJ'
p263
I938
sS'c4-JJ'
p264
I717
sS'c2-CD'
p265
I201
sS'c2-TO'
p266
I162
sS'c4-WRB'
p267
I34
sS'c4--NONE-'
p268
I2
sS"c4-''"
p269
I130
sS"c1-''"
p270
I395
sS'c1-RBS'
p271
I7
sS'c4-.'
p272
I352
sS'c2-RBS'
p273
I3
sS'c4-,'
p274
I286
sS'c4-#'
p275
I1
sS'c4-$'
p276
I40
sS'c1-DT'
p277
I819
sS'c3-POS'
p278
I3
sS'c4-NNP'
p279
I1386
sS'c4-NNS'
p280
I572
sS'c4-:'
p281
I42
sS'c4-TO'
p282
I235
sS'c4-JJR'
p283
I53
sS'c4-MD'
p284
I173
sS'c2--NONE-'
p285
I1
sS'c3-IN'
p286
I2510
sS'c2-PRP'
p287
I383
sS'c3-JJR'
p288
I75
sS'c4-JJS'
p289
I21
sS'c3-VBN'
p290
I10
sS'c1-PRP$'
p291
I117
sS'c2-WRB'
p292
I62
sS'c3-VB'
p293
I4
sS'c1-TO'
p294
I635
sS'c3-VBG'
p295
I170
sS'c3-PRP'
p296
I691
sS'c3-``'
p297
I34
sS'c3-VBD'
p298
I321
sS'c4-CC'
p299
I259
sS'c4-CD'
p300
I268
sS"c3-''"
p301
I50
sS'c1-WP$'
p302
I2
sS'c2-EX'
p303
I3
sS'c3-WP'
p304
I98
sS'c2-PRP$'
p305
I98
sS'c1-CD'
p306
I214
sS'c2-VB'
p307
I274
sS'c3-NNS'
p308
I540
sS'c3-JJ'
p309
I319
sS'c3-NNP'
p310
I606
sS'c2-MD'
p311
I214
sS'c1-VBP'
p312
I136
sS'c1-VBN'
p313
I160
sS'c1-VBD'
p314
I274
sS'c1-VBG'
p315
I105
sS'c2-DT'
p316
I1070
sS'c3-VBZ'
p317
I141
sS'c1-``'
p318
I78
sS'c4-VBN'
p319
I218
sS'c4-POS'
p320
I33
sS'c4-``'
p321
I320
sS'c2-WDT'
p322
I71
sS'c4-NNPS'
p323
I22
sS'c1-RP'
p324
I9
sS'c3-WRB'
p325
I53
sS'c1-RB'
p326
I659
sS'c1-VBZ'
p327
I232
sS'c4-RB'
p328
I404
sS'c3-NN'
p329
I839
sS'c3-CC'
p330
I427
sS'c1-IN'
p331
I601
sS'c1-JJS'
p332
I17
sS'c1-JJR'
p333
I49
sS'c3-CD'
p334
I82
sS'c3-VBP'
p335
I165
sS'c2-NNPS'
p336
I20
sS'c1-.'
p337
I112
sS'c1-,'
p338
I784
sS'c1-:'
p339
I32
sS'c3-PRP$'
p340
I243
sS'c3-EX'
p341
I21
sS'c4-PRP$'
p342
I177
sS'c1-NN'
p343
I1850
sS'c4-NN'
p344
I1655
sS'c4-RBR'
p345
I10
sS'c4-RBS'
p346
I9
sS'c3-LS'
p347
I2
sS'c1-WP'
p348
I65
sS'c2-JJ'
p349
I781
sS'c3-RB'
p350
I343
sS'c2-:'
p351
I63
sS'c1-RBR'
p352
I7
sS'c2-CC'
p353
I346
sS'c2-$'
p354
I1
sS'c2-``'
p355
I102
sS'c1-PRP'
p356
I1041
sS'c2-,'
p357
I1075
sS'c2-.'
p358
I708
sS'c4-VBZ'
p359
I267
sS'c2-NN'
p360
I1520
sS'c4-VBP'
p361
I249
sS'c2-POS'
p362
I110
sS'c1-WRB'
p363
I19
sS'c3-MD'
p364
I158
sS'c4-PRP'
p365
I340
sS'c2-NNS'
p366
I560
sS'c2-NNP'
p367
I1490
sS'c4-VBD'
p368
I423
sS'c2-PDT'
p369
I2
sS'c4-IN'
p370
I1063
sS'c4-VBG'
p371
I247
ssS'3'
p372
(dp373
S'c1-POS'
p374
I10
sS'c1-WDT'
p375
I4
sS'c1-NNP'
p376
I122
sS'c1-NNS'
p377
I51
sS"c2-''"
p378
I5
sS'c4-WDT'
p379
I11
sS'c2-VBN'
p380
I30
sS'c2-RP'
p381
I4
sS'c2-VBG'
p382
I31
sS'c2-VBD'
p383
I56
sS'c4-DT'
p384
I215
sS'c2-VBZ'
p385
I31
sS'c1--NONE-'
p386
I2
sS'c2-RB'
p387
I50
sS'c2-VBP'
p388
I37
sS'c2-IN'
p389
I306
sS'c4-WP'
p390
I6
sS'c1-NNPS'
p391
I2
sS'c3-DT'
p392
I140
sS'c1-MD'
p393
I23
sS'c3-WDT'
p394
I2
sS'c1-VB'
p395
I26
sS'c4-VB'
p396
I100
sS'c2-NNP'
p397
I125
sS'c3-TO'
p398
I92
sS'c3-,'
p399
I152
sS'c1-CC'
p400
I35
sS'c3-.'
p401
I134
sS'c2-JJR'
p402
I2
sS'c1-CD'
p403
I32
sS'c3-$'
p404
I1
sS'c2-WP'
p405
I3
sS'c3-:'
p406
I18
sS'c4-EX'
p407
I2
sS'c1-JJ'
p408
I254
sS'c4-JJ'
p409
I77
sS'c2-CD'
p410
I30
sS'c2-TO'
p411
I42
sS'c4-WRB'
p412
I2
sS"c4-''"
p413
I19
sS"c1-''"
p414
I4
sS'c4-.'
p415
I98
sS'c2-RBS'
p416
I3
sS'c4-,'
p417
I54
sS'c4-$'
p418
I7
sS'c1-DT'
p419
I454
sS'c3-POS'
p420
I2
sS'c4-NNP'
p421
I103
sS'c4-NNS'
p422
I100
sS'c4-:'
p423
I8
sS'c4-TO'
p424
I43
sS'c4-JJR'
p425
I5
sS'c4-MD'
p426
I32
sS'c3-VBP'
p427
I45
sS'c2-PRP'
p428
I41
sS'c3-JJR'
p429
I3
sS'c4-JJS'
p430
I1
sS'c3-VBN'
p431
I2
sS'c1-PRP$'
p432
I22
sS'c2-WRB'
p433
I13
sS'c3-VB'
p434
I6
sS'c1-TO'
p435
I59
sS'c3-VBG'
p436
I27
sS'c3-PRP'
p437
I36
sS'c3-``'
p438
I6
sS'c3-VBD'
p439
I111
sS'c4-CC'
p440
I39
sS'c4-CD'
p441
I38
sS"c3-''"
p442
I5
sS'c3-WP'
p443
I2
sS'c2-PRP$'
p444
I18
sS'c2-JJS'
p445
I9
sS'c2-VB'
p446
I46
sS'c3-NNS'
p447
I178
sS'c3-JJ'
p448
I62
sS'c1-VBZ'
p449
I14
sS'c2-MD'
p450
I18
sS'c1-VBP'
p451
I27
sS'c1-VBN'
p452
I11
sS'c1-VBD'
p453
I17
sS'c1-VBG'
p454
I26
sS'c2-DT'
p455
I252
sS'c3-VBZ'
p456
I99
sS'c1-``'
p457
I7
sS'c4-POS'
p458
I2
sS'c4-``'
p459
I31
sS'c2-WDT'
p460
I8
sS'c4-NNPS'
p461
I2
sS'c4-RP'
p462
I1
sS'c1-RP'
p463
I1
sS'c3-WRB'
p464
I8
sS'c1-RB'
p465
I45
sS'c4-RB'
p466
I91
sS'c3-NN'
p467
I183
sS'c3-CC'
p468
I64
sS'c1-IN'
p469
I109
sS'c1-JJS'
p470
I7
sS'c1-JJR'
p471
I5
sS'c3-CD'
p472
I8
sS'c3-IN'
p473
I282
sS'c2-NNPS'
p474
I6
sS'c1-.'
p475
I22
sS'c1-,'
p476
I52
sS'c1-:'
p477
I15
sS'c3-PRP$'
p478
I22
sS'c4-PRP$'
p479
I19
sS'c1-NN'
p480
I281
sS'c4-NN'
p481
I213
sS'c4-RBS'
p482
I3
sS'c1-WP'
p483
I4
sS'c2-JJ'
p484
I92
sS'c3-RB'
p485
I56
sS'c2-:'
p486
I9
sS'c1-RBR'
p487
I2
sS'c2-CC'
p488
I77
sS'c2-$'
p489
I3
sS'c2-``'
p490
I14
sS'c1-PRP'
p491
I63
sS'c2-,'
p492
I84
sS'c2-.'
p493
I94
sS'c3-NNP'
p494
I9
sS'c4-VBZ'
p495
I30
sS'c2-NN'
p496
I164
sS'c4-VBP'
p497
I42
sS'c2-POS'
p498
I25
sS'c3-MD'
p499
I53
sS'c4-PRP'
p500
I72
sS'c2-NNS'
p501
I80
sS'c4-VBN'
p502
I71
sS'c4-VBD'
p503
I78
sS'c4-IN'
p504
I157
sS'c4-VBG'
p505
I36
ssS'2'
p506
(dp507
S'c1-POS'
p508
I149
sS'c3-DT'
p509
I311
sS'c2-WP$'
p510
I1
sS'c1-NNP'
p511
I361
sS'c1-NNS'
p512
I90
sS"c2-''"
p513
I15
sS'c4-WDT'
p514
I39
sS'c2-VBN'
p515
I90
sS'c2-RP'
p516
I19
sS'c2-VBG'
p517
I68
sS'c2-VBD'
p518
I149
sS'c4-DT'
p519
I888
sS'c2-VBZ'
p520
I70
sS'c2-RB'
p521
I83
sS'c2-VBP'
p522
I54
sS'c3-WRB'
p523
I22
sS'c3-NN'
p524
I324
sS'c1-NNPS'
p525
I7
sS'c1-WDT'
p526
I16
sS'c4-:'
p527
I17
sS'c1-EX'
p528
I1
sS'c1-MD'
p529
I62
sS'c3-WDT'
p530
I4
sS'c1-VB'
p531
I66
sS'c4-VB'
p532
I268
sS'c3-JJS'
p533
I1
sS'c3-TO'
p534
I285
sS'c3-,'
p535
I1169
sS'c1-CC'
p536
I102
sS'c3-.'
p537
I744
sS'c2-JJR'
p538
I24
sS'c1-CD'
p539
I508
sS'c3-$'
p540
I9
sS'c2-WP'
p541
I15
sS'c3-:'
p542
I80
sS'c2-RBR'
p543
I4
sS'c4-EX'
p544
I4
sS'c1-JJ'
p545
I603
sS'c4-JJ'
p546
I362
sS'c2-CD'
p547
I1071
sS'c2-TO'
p548
I104
sS'c4-WRB'
p549
I10
sS'c4--NONE-'
p550
I1
sS"c4-''"
p551
I61
sS"c1-''"
p552
I12
sS'c1-RBS'
p553
I2
sS'c4-.'
p554
I186
sS'c2-RBS'
p555
I1
sS'c4-,'
p556
I109
sS'c4-$'
p557
I77
sS'c1-DT'
p558
I1912
sS'c3-POS'
p559
I6
sS'c4-NNP'
p560
I493
sS'c4-NNS'
p561
I280
sS'c3-VBZ'
p562
I162
sS'c4-TO'
p563
I125
sS'c4-JJR'
p564
I30
sS'c4-MD'
p565
I37
sS'c2--NONE-'
p566
I1
sS'c1-VBZ'
p567
I53
sS'c2-PRP'
p568
I80
sS'c3-JJR'
p569
I8
sS'c4-JJS'
p570
I8
sS'c3-VBN'
p571
I25
sS'c1-PRP$'
p572
I130
sS'c2-JJ'
p573
I245
sS'c3-VB'
p574
I3
sS'c1-TO'
p575
I137
sS'c3-VBG'
p576
I114
sS'c3-PRP'
p577
I64
sS'c3-``'
p578
I9
sS'c3-VBD'
p579
I302
sS'c4-CC'
p580
I200
sS'c4-CD'
p581
I157
sS"c3-''"
p582
I14
sS'c1-WP$'
p583
I6
sS'c2-EX'
p584
I2
sS'c3-WP'
p585
I3
sS'c2-PRP$'
p586
I66
sS'c2-JJS'
p587
I23
sS'c2-VB'
p588
I180
sS'c3-NNS'
p589
I246
sS'c3-JJ'
p590
I203
sS'c3-NNP'
p591
I62
sS'c4-PDT'
p592
I1
sS'c2-MD'
p593
I31
sS'c1-VBP'
p594
I54
sS'c1-VBN'
p595
I62
sS'c1-VBD'
p596
I74
sS'c1-VBG'
p597
I48
sS'c2-DT'
p598
I505
sS'c1-``'
p599
I16
sS'c4-VBN'
p600
I205
sS'c4-POS'
p601
I14
sS'c4-``'
p602
I47
sS'c2-WDT'
p603
I28
sS'c4-NNPS'
p604
I4
sS'c1-RP'
p605
I3
sS'c2-IN'
p606
I743
sS'c1-RB'
p607
I114
sS'c4-RB'
p608
I321
sS'c4-WP'
p609
I5
sS'c3-IN'
p610
I1264
sS'c3-CC'
p611
I142
sS'c1-IN'
p612
I300
sS'c1-JJS'
p613
I24
sS'c1-JJR'
p614
I27
sS'c3-CD'
p615
I18
sS'c3-VBP'
p616
I68
sS'c2-NNPS'
p617
I5
sS'c1-.'
p618
I70
sS'c1-,'
p619
I84
sS'c3--NONE-'
p620
I1
sS'c1-:'
p621
I10
sS'c3-PRP$'
p622
I53
sS'c3-EX'
p623
I2
sS'c4-PRP$'
p624
I103
sS'c1-NN'
p625
I682
sS'c4-NN'
p626
I530
sS'c4-RBR'
p627
I2
sS'c4-RBS'
p628
I6
sS'c1-WP'
p629
I16
sS'c2-WRB'
p630
I26
sS'c2-NNP'
p631
I358
sS'c2-:'
p632
I22
sS'c1-RBR'
p633
I1
sS'c2-CC'
p634
I133
sS'c2-$'
p635
I2
sS'c2-``'
p636
I30
sS'c1-PRP'
p637
I140
sS'c2-,'
p638
I215
sS'c2-.'
p639
I227
sS'c4-VBZ'
p640
I69
sS'c2-NN'
p641
I488
sS'c4-VBP'
p642
I85
sS'c2-POS'
p643
I76
sS'c1-WRB'
p644
I5
sS'c3-MD'
p645
I112
sS'c4-PRP'
p646
I116
sS'c2-NNS'
p647
I690
sS'c3-RB'
p648
I117
sS'c4-VBD'
p649
I129
sS'c2-PDT'
p650
I3
sS'c4-IN'
p651
I816
sS'c4-VBG'
p652
I142
ssS'5'
p653
(dp654
S'c1-POS'
p655
I5
sS'c3-DT'
p656
I38
sS'c1-NNP'
p657
I57
sS'c1-NNS'
p658
I8
sS"c2-''"
p659
I2
sS'c4-WDT'
p660
I4
sS'c2-VBN'
p661
I12
sS'c2-RP'
p662
I1
sS'c2-VBG'
p663
I8
sS'c2-VBD'
p664
I16
sS'c4-DT'
p665
I83
sS'c2-VBZ'
p666
I5
sS'c2-RB'
p667
I11
sS'c2-VBP'
p668
I5
sS'c2-IN'
p669
I121
sS'c3-NN'
p670
I49
sS'c1-NNPS'
p671
I1
sS'c1-WDT'
p672
I7
sS'c1-MD'
p673
I14
sS'c1-VB'
p674
I15
sS'c4-VB'
p675
I18
sS'c2-NNP'
p676
I30
sS'c3-JJR'
p677
I1
sS'c3-,'
p678
I54
sS'c1-CC'
p679
I19
sS'c3-.'
p680
I48
sS'c2-JJR'
p681
I1
sS'c1-CD'
p682
I27
sS'c3-$'
p683
I2
sS'c2-WP'
p684
I3
sS'c3-:'
p685
I9
sS'c1-JJ'
p686
I78
sS'c2-CC'
p687
I22
sS'c2-CD'
p688
I2
sS'c2-TO'
p689
I19
sS"c4-''"
p690
I10
sS'c4-.'
p691
I25
sS'c4-,'
p692
I13
sS'c4-$'
p693
I2
sS'c1-DT'
p694
I75
sS'c4-NNP'
p695
I45
sS'c4-NNS'
p696
I17
sS'c4-:'
p697
I3
sS'c4-TO'
p698
I14
sS'c3-JJ'
p699
I5
sS'c4-MD'
p700
I6
sS'c3-VBP'
p701
I4
sS'c2-PRP'
p702
I15
sS'c3-TO'
p703
I20
sS'c1-PRP$'
p704
I16
sS'c3-VBN'
p705
I1
sS'c3-VB'
p706
I2
sS'c1-TO'
p707
I13
sS'c3-VBG'
p708
I6
sS'c3-PRP'
p709
I21
sS'c3-``'
p710
I1
sS'c3-VBD'
p711
I21
sS'c4-CC'
p712
I10
sS'c4-CD'
p713
I15
sS"c3-''"
p714
I3
sS'c1-WP$'
p715
I1
sS'c2-PRP$'
p716
I10
sS'c2-VB'
p717
I17
sS'c3-NNS'
p718
I30
sS'c4-JJR'
p719
I1
sS'c1-VBZ'
p720
I7
sS'c2-MD'
p721
I7
sS'c1-VBP'
p722
I7
sS'c1-VBN'
p723
I9
sS'c1-VBD'
p724
I9
sS'c1-VBG'
p725
I9
sS'c2-DT'
p726
I57
sS'c3-VBZ'
p727
I2
sS'c1-``'
p728
I1
sS'c4-``'
p729
I3
sS'c2-WDT'
p730
I4
sS'c2-WRB'
p731
I1
sS'c3-WRB'
p732
I7
sS'c1-RB'
p733
I19
sS'c4-RB'
p734
I18
sS'c4-WP'
p735
I2
sS'c3-CC'
p736
I6
sS'c1-IN'
p737
I15
sS'c1-JJR'
p738
I1
sS'c3-CD'
p739
I4
sS'c3-IN'
p740
I144
sS'c2-NNPS'
p741
I2
sS'c1-.'
p742
I2
sS'c1-,'
p743
I11
sS'c1-:'
p744
I2
sS'c3-PRP$'
p745
I15
sS'c4-PRP$'
p746
I11
sS'c1-NN'
p747
I61
sS'c4-NN'
p748
I77
sS'c1-WP'
p749
I8
sS'c2-JJ'
p750
I29
sS'c4-VBN'
p751
I18
sS'c2-:'
p752
I2
sS'c1-RBR'
p753
I2
sS'c4-JJ'
p754
I27
sS'c2-$'
p755
I2
sS'c2-``'
p756
I1
sS'c1-PRP'
p757
I26
sS'c2-,'
p758
I16
sS'c2-.'
p759
I20
sS'c3-NNP'
p760
I10
sS'c4-VBZ'
p761
I5
sS'c2-NN'
p762
I63
sS'c4-VBP'
p763
I7
sS'c4-VBD'
p764
I11
sS'c3-MD'
p765
I8
sS'c4-PRP'
p766
I20
sS'c2-NNS'
p767
I17
sS'c3-RB'
p768
I14
sS'c2-POS'
p769
I4
sS'c4-IN'
p770
I55
sS'c4-VBG'
p771
I5
ssS'4'
p772
(dp773
S'c1-POS'
p774
I14
sS'c1-WDT'
p775
I3
sS'c1-NNP'
p776
I35
sS'c1-NNS'
p777
I18
sS'c4-WDT'
p778
I4
sS'c2-VBN'
p779
I13
sS'c2-RP'
p780
I3
sS'c2-VBG'
p781
I19
sS'c2-VBD'
p782
I19
sS'c4-DT'
p783
I97
sS'c2-VBZ'
p784
I12
sS'c2-RB'
p785
I18
sS'c2-VBP'
p786
I13
sS'c2-IN'
p787
I59
sS'c3-NN'
p788
I32
sS'c3-DT'
p789
I60
sS'c4-:'
p790
I3
sS'c1-MD'
p791
I23
sS'c3-WDT'
p792
I1
sS'c1-VB'
p793
I9
sS'c4-VB'
p794
I16
sS'c1-PDT'
p795
I3
sS'c3-TO'
p796
I19
sS'c3-,'
p797
I38
sS'c1-CC'
p798
I10
sS'c3-.'
p799
I58
sS'c2-JJR'
p800
I1
sS'c1-CD'
p801
I7
sS'c3-$'
p802
I3
sS'c2-WP'
p803
I3
sS'c3-:'
p804
I7
sS'c4-EX'
p805
I1
sS'c1-JJ'
p806
I76
sS'c4-JJ'
p807
I35
sS'c2-CD'
p808
I6
sS'c2-TO'
p809
I8
sS'c4-WRB'
p810
I2
sS"c4-''"
p811
I9
sS'c4-.'
p812
I21
sS'c4-,'
p813
I13
sS'c4-$'
p814
I3
sS'c1-DT'
p815
I74
sS'c4-NNP'
p816
I47
sS'c4-NNS'
p817
I33
sS'c3-VBZ'
p818
I13
sS'c4-TO'
p819
I8
sS'c3-JJ'
p820
I16
sS'c4-MD'
p821
I6
sS'c3-VBP'
p822
I5
sS'c2-PRP'
p823
I21
sS'c3-JJR'
p824
I1
sS'c3-VBN'
p825
I1
sS'c1-PRP$'
p826
I24
sS'c2-JJ'
p827
I42
sS'c1-TO'
p828
I50
sS'c3-VBG'
p829
I5
sS'c3-PRP'
p830
I30
sS'c3-VBD'
p831
I14
sS'c4-CC'
p832
I10
sS'c4-CD'
p833
I16
sS"c3-''"
p834
I1
sS'c3-WP'
p835
I1
sS'c2-PRP$'
p836
I16
sS'c2-JJS'
p837
I4
sS'c2-VB'
p838
I23
sS'c3-NNS'
p839
I26
sS'c4-JJR'
p840
I4
sS'c3-NNP'
p841
I12
sS'c2-MD'
p842
I10
sS'c1-VBP'
p843
I16
sS'c1-VBN'
p844
I4
sS'c1-VBD'
p845
I12
sS'c1-VBG'
p846
I14
sS'c2-DT'
p847
I99
sS'c1-``'
p848
I2
sS'c4-VBN'
p849
I13
sS'c4-``'
p850
I8
sS'c2-WDT'
p851
I1
sS'c4-NNPS'
p852
I2
sS'c3-WRB'
p853
I2
sS'c1-RB'
p854
I23
sS'c1-VBZ'
p855
I10
sS'c4-RB'
p856
I19
sS'c4-WP'
p857
I2
sS'c3-CC'
p858
I13
sS'c1-IN'
p859
I9
sS'c1-JJS'
p860
I2
sS'c1-JJR'
p861
I1
sS'c3-CD'
p862
I3
sS'c3-IN'
p863
I233
sS'c2-NNPS'
p864
I2
sS'c1-.'
p865
I3
sS'c1-,'
p866
I13
sS'c3-PRP$'
p867
I5
sS'c4-PRP$'
p868
I13
sS'c1-NN'
p869
I136
sS'c4-NN'
p870
I84
sS'c1-WP'
p871
I7
sS'c2-WRB'
p872
I3
sS'c2-NNP'
p873
I51
sS'c2-:'
p874
I3
sS'c1-RBR'
p875
I1
sS'c2-CC'
p876
I17
sS'c2-``'
p877
I3
sS'c1-PRP'
p878
I18
sS'c2-,'
p879
I22
sS'c2-.'
p880
I15
sS'c4-VBZ'
p881
I9
sS'c2-NN'
p882
I61
sS'c4-VBP'
p883
I11
sS'c4-VBD'
p884
I16
sS'c3-MD'
p885
I5
sS'c4-PRP'
p886
I11
sS'c2-NNS'
p887
I33
sS'c3-RB'
p888
I12
sS'c3-NNPS'
p889
I1
sS'c2-POS'
p890
I17
sS'c4-IN'
p891
I77
sS'c4-VBG'
p892
I24
ssS'7'
p893
(dp894
S'c3-,'
p895
I6
sS'c1-CC'
p896
I5
sS'c3-.'
p897
I3
sS'c1-CD'
p898
I2
sS'c4-CD'
p899
I2
sS'c4-CC'
p900
I2
sS"c3-''"
p901
I1
sS'c2-WP'
p902
I1
sS'c1-VBP'
p903
I20
sS"c2-''"
p904
I1
sS'c1-NNP'
p905
I3
sS'c3-PRP$'
p906
I2
sS'c1-POS'
p907
I6
sS'c2-NNS'
p908
I11
sS'c2-``'
p909
I2
sS'c4-.'
p910
I3
sS'c4-PRP$'
p911
I1
sS'c1-.'
p912
I2
sS'c1-JJ'
p913
I14
sS'c2-VB'
p914
I8
sS'c2-CC'
p915
I1
sS'c2-CD'
p916
I2
sS'c1-VBZ'
p917
I11
sS'c1-NN'
p918
I10
sS'c2-,'
p919
I4
sS'c2-TO'
p920
I1
sS'c4-NN'
p921
I10
sS'c2-VBG'
p922
I2
sS'c2-VBD'
p923
I3
sS'c4-DT'
p924
I9
sS'c2-VBZ'
p925
I5
sS'c3-PRP'
p926
I2
sS'c2-RB'
p927
I1
sS'c1-VBD'
p928
I3
sS'c2-VBP'
p929
I10
sS'c2-IN'
p930
I13
sS'c1-WP'
p931
I1
sS'c3-NN'
p932
I10
sS'c2-WRB'
p933
I2
sS'c3-DT'
p934
I2
sS'c2-DT'
p935
I10
sS'c1-,'
p936
I5
sS'c2-NNP'
p937
I13
sS'c4-,'
p938
I8
sS'c1-MD'
p939
I1
sS'c3-RB'
p940
I1
sS'c4-``'
p941
I1
sS'c1-DT'
p942
I12
sS'c4-JJ'
p943
I7
sS'c2-WDT'
p944
I2
sS'c1-WDT'
p945
I2
sS"c4-''"
p946
I1
sS'c3-NNS'
p947
I16
sS'c1-PRP'
p948
I5
sS'c4-NNP'
p949
I8
sS'c4-NNS'
p950
I3
sS'c1-RP'
p951
I1
sS'c4-TO'
p952
I1
sS'c2-NN'
p953
I14
sS'c1-:'
p954
I1
sS'c4-MD'
p955
I2
sS'c2-POS'
p956
I1
sS'c3-IN'
p957
I18
sS'c2-PRP'
p958
I21
sS'c3-MD'
p959
I4
sS'c4-PRP'
p960
I1
sS'c4-VB'
p961
I50
sS'c1-RB'
p962
I16
sS'c4-VBP'
p963
I5
sS'c4-RB'
p964
I2
sS'c1-PRP$'
p965
I3
sS'c2-JJ'
p966
I3
sS'c4-VBN'
p967
I4
sS'c3-CC'
p968
I8
sS'c1-IN'
p969
I8
sS'c1-TO'
p970
I1
sS'c4-VBD'
p971
I8
sS'c3-TO'
p972
I59
sS'c4-IN'
p973
I4
sS'c2-VBN'
p974
I1
ssS'6'
p975
(dp976
S'c1-POS'
p977
I6
sS'c1-WDT'
p978
I2
sS'c1-NNP'
p979
I35
sS'c1-NNS'
p980
I24
sS"c2-''"
p981
I2
sS'c4-WDT'
p982
I3
sS'c2-VBN'
p983
I10
sS'c2-RP'
p984
I6
sS'c2-VBG'
p985
I14
sS'c2-VBD'
p986
I16
sS'c4-DT'
p987
I81
sS'c2-VBZ'
p988
I13
sS'c2-RB'
p989
I20
sS'c2-VBP'
p990
I15
sS'c2-IN'
p991
I90
sS'c3-NN'
p992
I26
sS'c3-DT'
p993
I28
sS'c1-MD'
p994
I7
sS'c1-VB'
p995
I12
sS'c4-VB'
p996
I24
sS'c2-NNP'
p997
I32
sS'c3-TO'
p998
I14
sS'c3-,'
p999
I38
sS'c1-CC'
p1000
I5
sS'c3-.'
p1001
I48
sS'c1-CD'
p1002
I9
sS'c2-WP'
p1003
I2
sS'c3-:'
p1004
I5
sS'c2-RBR'
p1005
I1
sS'c4-EX'
p1006
I1
sS'c1-JJ'
p1007
I89
sS'c4-JJ'
p1008
I42
sS'c2-CD'
p1009
I9
sS'c2-TO'
p1010
I7
sS"c4-''"
p1011
I5
sS"c1-''"
p1012
I2
sS'c4-.'
p1013
I14
sS'c2-RBS'
p1014
I1
sS'c4-,'
p1015
I8
sS'c4-$'
p1016
I3
sS'c1-DT'
p1017
I77
sS'c1-IN'
p1018
I45
sS'c4-NNP'
p1019
I50
sS'c4-NNS'
p1020
I26
sS'c3-VBZ'
p1021
I27
sS'c4-TO'
p1022
I35
sS'c4-JJR'
p1023
I2
sS'c4-MD'
p1024
I4
sS'c3-VBP'
p1025
I16
sS'c2-PRP'
p1026
I9
sS'c3-JJR'
p1027
I2
sS'c4-JJS'
p1028
I2
sS'c1-PRP$'
p1029
I4
sS'c2-JJ'
p1030
I46
sS'c1-TO'
p1031
I20
sS'c3-VBG'
p1032
I4
sS'c3-PRP'
p1033
I6
sS'c3-``'
p1034
I2
sS'c3-VBD'
p1035
I39
sS'c4-CC'
p1036
I11
sS'c4-CD'
p1037
I18
sS"c3-''"
p1038
I6
sS'c2-EX'
p1039
I1
sS'c3-WP'
p1040
I1
sS'c2-PRP$'
p1041
I5
sS'c2-VB'
p1042
I18
sS'c3-NNS'
p1043
I23
sS'c3-JJ'
p1044
I8
sS'c3-NNP'
p1045
I10
sS'c2-MD'
p1046
I5
sS'c1-VBP'
p1047
I1
sS'c1-VBN'
p1048
I10
sS'c1-VBD'
p1049
I19
sS'c1-VBG'
p1050
I8
sS'c2-DT'
p1051
I65
sS'c1-``'
p1052
I1
sS'c4-POS'
p1053
I2
sS'c4-``'
p1054
I3
sS'c2-WDT'
p1055
I4
sS'c4-NNPS'
p1056
I1
sS'c1-RP'
p1057
I4
sS'c2-WRB'
p1058
I2
sS'c3-WRB'
p1059
I1
sS'c1-RB'
p1060
I20
sS'c1-VBZ'
p1061
I4
sS'c4-RB'
p1062
I23
sS'c4-WP'
p1063
I2
sS'c3-CC'
p1064
I11
sS'c3-POS'
p1065
I1
sS'c1-JJS'
p1066
I5
sS'c1-JJR'
p1067
I6
sS'c3-CD'
p1068
I3
sS'c3-IN'
p1069
I226
sS'c1-.'
p1070
I8
sS'c1-,'
p1071
I13
sS'c1-:'
p1072
I2
sS'c3-PRP$'
p1073
I3
sS'c4-PRP$'
p1074
I5
sS'c1-NN'
p1075
I106
sS'c4-NN'
p1076
I76
sS'c4-RBS'
p1077
I1
sS'c1-WP'
p1078
I2
sS'c3-VBN'
p1079
I1
sS'c3-RB'
p1080
I11
sS'c2-:'
p1081
I5
sS'c1-RBR'
p1082
I1
sS'c2-CC'
p1083
I25
sS'c2-``'
p1084
I8
sS'c1-PRP'
p1085
I28
sS'c2-,'
p1086
I23
sS'c2-.'
p1087
I23
sS'c4-VBZ'
p1088
I4
sS'c2-NN'
p1089
I70
sS'c4-VBP'
p1090
I10
sS'c4-VBD'
p1091
I8
sS'c3-MD'
p1092
I15
sS'c4-PRP'
p1093
I10
sS'c2-NNS'
p1094
I23
sS'c4-VBN'
p1095
I29
sS'c2-POS'
p1096
I5
sS'c4-IN'
p1097
I60
sS'c4-VBG'
p1098
I12
ssS'9'
p1099
(dp1100
S'c3-,'
p1101
I1
sS'c1-WDT'
p1102
I1
sS'c1-NNS'
p1103
I1
sS'c2-NNS'
p1104
I1
sS'c2-VB'
p1105
I1
sS'c4-JJ'
p1106
I3
sS'c2-VBN'
p1107
I1
sS'c1-NN'
p1108
I2
sS'c2-MD'
p1109
I2
sS'c2-VBD'
p1110
I1
sS'c4-DT'
p1111
I3
sS'c2-VBZ'
p1112
I1
sS'c1-VBN'
p1113
I1
sS'c2-RB'
p1114
I3
sS'c1-VBD'
p1115
I2
sS'c2-IN'
p1116
I1
sS'c2-WRB'
p1117
I1
sS'c2-DT'
p1118
I1
sS'c4-,'
p1119
I3
sS'c4-``'
p1120
I1
sS'c1-DT'
p1121
I1
sS'c3-DT'
p1122
I1
sS'c2-``'
p1123
I1
sS'c1-PRP'
p1124
I2
sS'c2-.'
p1125
I1
sS'c4-TO'
p1126
I1
sS'c2-NN'
p1127
I2
sS'c3-IN'
p1128
I10
sS'c1-VB'
p1129
I3
sS'c4-VB'
p1130
I1
sS'c1-RB'
p1131
I3
sS'c4-RB'
p1132
I2
sS'c2-JJ'
p1133
I1
sS'c3-RB'
p1134
I1
sS'c3-PRP'
p1135
I1
sS'c3-CC'
p1136
I1
sS'c1-TO'
p1137
I2
sS'c4-VBD'
p1138
I2
sS'c3-TO'
p1139
I3
sS'c4-IN'
p1140
I2
ssS'8'
p1141
(dp1142
S'c1-POS'
p1143
I1
sS'c3-DT'
p1144
I20
sS'c1-NNP'
p1145
I11
sS'c1-NNS'
p1146
I3
sS"c2-''"
p1147
I1
sS'c2-VBN'
p1148
I4
sS'c2-RP'
p1149
I1
sS'c2-VBD'
p1150
I8
sS'c3-WP'
p1151
I1
sS'c2-VBZ'
p1152
I5
sS'c2-RB'
p1153
I1
sS'c2-VBP'
p1154
I8
sS'c2-IN'
p1155
I8
sS'c3-NN'
p1156
I9
sS'c1-WDT'
p1157
I2
sS'c1-MD'
p1158
I9
sS'c1-VB'
p1159
I7
sS'c4-VB'
p1160
I2
sS'c3-JJR'
p1161
I2
sS'c3-,'
p1162
I1
sS'c1-CC'
p1163
I5
sS'c3-.'
p1164
I1
sS'c1-CD'
p1165
I1
sS'c1-JJ'
p1166
I1
sS'c2-CC'
p1167
I3
sS'c2-TO'
p1168
I3
sS"c4-''"
p1169
I1
sS'c4-.'
p1170
I2
sS'c4-,'
p1171
I1
sS'c1-DT'
p1172
I4
sS'c4-NNP'
p1173
I2
sS'c4-NNS'
p1174
I15
sS'c4-TO'
p1175
I2
sS'c2--NONE-'
p1176
I1
sS'c3-IN'
p1177
I49
sS'c2-PRP'
p1178
I7
sS'c3-TO'
p1179
I2
sS'c3-VBN'
p1180
I1
sS'c1-TO'
p1181
I22
sS'c3-VBG'
p1182
I3
sS'c3-PRP'
p1183
I6
sS'c3-``'
p1184
I1
sS'c4-CC'
p1185
I1
sS'c4-CD'
p1186
I1
sS'c4-DT'
p1187
I11
sS'c2-JJS'
p1188
I1
sS'c2-VB'
p1189
I5
sS'c3-NNS'
p1190
I10
sS'c3-JJ'
p1191
I3
sS'c3-NNP'
p1192
I2
sS'c2-MD'
p1193
I10
sS'c1-VBP'
p1194
I2
sS'c1-VBN'
p1195
I2
sS'c1-VBD'
p1196
I2
sS'c1-VBG'
p1197
I1
sS'c2-DT'
p1198
I4
sS'c1-``'
p1199
I2
sS'c4-POS'
p1200
I1
sS'c2-WDT'
p1201
I1
sS'c1-RB'
p1202
I11
sS'c1-VBZ'
p1203
I4
sS'c4-RB'
p1204
I2
sS'c1-IN'
p1205
I11
sS'c3-CD'
p1206
I2
sS'c3-VBP'
p1207
I1
sS'c1-,'
p1208
I7
sS'c1-:'
p1209
I1
sS'c3-PRP$'
p1210
I14
sS'c4-PRP$'
p1211
I4
sS'c2-JJ'
p1212
I5
sS'c1-NN'
p1213
I8
sS'c4-NN'
p1214
I26
sS'c2-WRB'
p1215
I1
sS'c2-:'
p1216
I1
sS'c4-JJ'
p1217
I10
sS'c2-``'
p1218
I1
sS'c1-PRP'
p1219
I11
sS'c2-,'
p1220
I9
sS'c2-.'
p1221
I8
sS'c2-NN'
p1222
I17
sS'c4-VBP'
p1223
I2
sS'c4-PRP'
p1224
I2
sS'c2-NNS'
p1225
I7
sS'c2-NNP'
p1226
I8
sS'c4-VBD'
p1227
I4
sS'c4-IN'
p1228
I36
sS'c4-VBG'
p1229
I3
ss.