ccollections
defaultdict
p0
(c__builtin__
int
p1
tp2
Rp3
S'11'
p4
I27
sS'10'
p5
I14
sS'13'
p6
I6
sS'12'
p7
I1
sS'15'
p8
I18
sS'14'
p9
I370
sS'1'
p10
I12095
sS'3'
p11
I1808
sS'2'
p12
I5947
sS'5'
p13
I525
sS'4'
p14
I617
sS'7'
p15
I132
sS'6'
p16
I575
sS'9'
p17
I18
sS'8'
p18
I128
s.