ccollections
defaultdict
p0
(c__builtin__
int
p1
tp2
Rp3
S'begin.v'
p4
I114
sS'complain.v'
p5
I32
sS'plant.n'
p6
I347
sS'need.v'
p7
I195
sS'carrier.n'
p8
I111
sS'occur.v'
p9
I47
sS'state.n'
p10
I617
sS'announce.v'
p11
I88
sS'care.v'
p12
I69
sS'ask.v'
p13
I348
sS'defense.n'
p14
I120
sS'capital.n'
p15
I278
sS'move.n'
p16
I270
sS'base.n'
p17
I92
sS'share.n'
p18
I2536
sS'contribute.v'
p19
I35
sS'cause.v'
p20
I73
sS'system.n'
p21
I450
sS'fix.v'
p22
I32
sS'avoid.v'
p23
I55
sS'enjoy.v'
p24
I56
sS'disclose.v'
p25
I55
sS'turn.v'
p26
I340
sS'see.v'
p27
I158
sS'lead.v'
p28
I165
sS'source.n'
p29
I152
sS'exchange.n'
p30
I363
sS'space.n'
p31
I67
sS'order.n'
p32
I346
sS'remove.v'
p33
I47
sS'keep.v'
p34
I260
sS'network.n'
p35
I152
sS'purchase.v'
p36
I35
sS'do.v'
p37
I207
sS'go.v'
p38
I244
sS'receive.v'
p39
I136
sS'end.v'
p40
I135
sS'start.v'
p41
I214
sS'part.n'
p42
I481
sS'attempt.v'
p43
I40
sS'feel.v'
p44
I347
sS'estimate.v'
p45
I74
sS'set.v'
p46
I174
sS'come.v'
p47
I186
sS'produce.v'
p48
I115
sS'improve.v'
p49
I31
sS'chance.n'
p50
I91
sS'claim.v'
p51
I54
sS'raise.v'
p52
I147
sS'value.n'
p53
I335
sS'regard.v'
p54
I40
sS'complete.v'
p55
I42
sS'prove.v'
p56
I49
sS'rate.n'
p57
I1009
sS'future.n'
p58
I350
sS'buy.v'
p59
I164
sS'promise.v'
p60
I50
sS'bill.n'
p61
I404
sS'build.v'
p62
I119
sS'approve.v'
p63
I53
sS'authority.n'
p64
I90
sS'recall.v'
p65
I49
sS'drug.n'
p66
I205
sS'work.v'
p67
I230
sS'policy.n'
p68
I331
sS'power.n'
p69
I251
sS'replace.v'
p70
I46
sS'find.v'
p71
I174
sS'people.n'
p72
I754
sS'report.v'
p73
I128
sS'point.n'
p74
I469
sS'affect.v'
p75
I45
sS'hope.v'
p76
I103
sS'hold.v'
p77
I129
sS'job.n'
p78
I188
sS'explain.v'
p79
I85
sS'describe.v'
p80
I57
sS'effect.n'
p81
I178
sS'development.n'
p82
I180
sS'position.n'
p83
I268
sS'allow.v'
p84
I108
sS'prepare.v'
p85
I54
sS'management.n'
p86
I284
sS'express.v'
p87
I47
sS'rush.v'
p88
I28
sS'exist.v'
p89
I52
sS'grant.v'
p90
I19
sS'kill.v'
p91
I111
sS'propose.v'
p92
I34
sS'area.n'
p93
I326
sS'remember.v'
p94
I121
sS'examine.v'
p95
I26
sS'say.v'
p96
I2161
sS'join.v'
p97
I68
sS'negotiate.v'
p98
I25
sS'maintain.v'
p99
I61
sS'condition.n'
p100
I132
sS'believe.v'
p101
I202
sS'hour.n'
p102
I187
sS'president.n'
p103
I879
s.