ccollections
defaultdict
p0
(c__builtin__
dict
p1
tp2
Rp3
S'11'
p4
(dp5
S'come.v'
p6
I17
sS'turn.v'
p7
I8
sS'go.v'
p8
I2
ssS'10'
p9
(dp10
S'carrier.n'
p11
I1
sS'go.v'
p12
I9
sS'hold.v'
p13
I4
ssS'13'
p14
(dp15
S'go.v'
p16
I3
sS'turn.v'
p17
I3
ssS'12'
p18
(dp19
S'turn.v'
p20
I1
ssS'15'
p21
(dp22
S'turn.v'
p23
I18
ssS'14'
p24
(dp25
S'point.n'
p26
I336
sS'go.v'
p27
I33
sS'turn.v'
p28
I1
ssS'1'
p29
(dp30
S'begin.v'
p31
I69
sS'complain.v'
p32
I31
sS'plant.n'
p33
I297
sS'need.v'
p34
I132
sS'occur.v'
p35
I37
sS'state.n'
p36
I80
sS'announce.v'
p37
I87
sS'care.v'
p38
I54
sS'ask.v'
p39
I226
sS'defense.n'
p40
I15
sS'capital.n'
p41
I258
sS'move.n'
p42
I4
sS'base.n'
p43
I23
sS'share.n'
p44
I57
sS'contribute.v'
p45
I11
sS'cause.v'
p46
I73
sS'system.n'
p47
I130
sS'fix.v'
p48
I3
sS'avoid.v'
p49
I55
sS'enjoy.v'
p50
I44
sS'disclose.v'
p51
I55
sS'turn.v'
p52
I179
sS'see.v'
p53
I33
sS'lead.v'
p54
I56
sS'source.n'
p55
I4
sS'exchange.n'
p56
I49
sS'space.n'
p57
I30
sS'order.n'
p58
I46
sS'remove.v'
p59
I47
sS'keep.v'
p60
I135
sS'network.n'
p61
I29
sS'purchase.v'
p62
I35
sS'do.v'
p63
I190
sS'go.v'
p64
I96
sS'receive.v'
p65
I127
sS'end.v'
p66
I85
sS'start.v'
p67
I27
sS'part.n'
p68
I394
sS'attempt.v'
p69
I40
sS'feel.v'
p70
I285
sS'estimate.v'
p71
I74
sS'set.v'
p72
I35
sS'come.v'
p73
I55
sS'produce.v'
p74
I99
sS'improve.v'
p75
I31
sS'chance.n'
p76
I46
sS'claim.v'
p77
I45
sS'raise.v'
p78
I46
sS'value.n'
p79
I24
sS'regard.v'
p80
I23
sS'complete.v'
p81
I41
sS'prove.v'
p82
I24
sS'rate.n'
p83
I854
sS'future.n'
p84
I61
sS'buy.v'
p85
I129
sS'promise.v'
p86
I44
sS'build.v'
p87
I78
sS'approve.v'
p88
I50
sS'authority.n'
p89
I39
sS'recall.v'
p90
I46
sS'drug.n'
p91
I123
sS'work.v'
p92
I149
sS'policy.n'
p93
I258
sS'power.n'
p94
I119
sS'replace.v'
p95
I44
sS'find.v'
p96
I146
sS'people.n'
p97
I687
sS'report.v'
p98
I121
sS'point.n'
p99
I5
sS'affect.v'
p100
I45
sS'hope.v'
p101
I103
sS'hold.v'
p102
I3
sS'job.n'
p103
I140
sS'explain.v'
p104
I75
sS'describe.v'
p105
I53
sS'effect.n'
p106
I146
sS'development.n'
p107
I141
sS'position.n'
p108
I7
sS'allow.v'
p109
I98
sS'prepare.v'
p110
I26
sS'management.n'
p111
I111
sS'express.v'
p112
I47
sS'rush.v'
p113
I26
sS'exist.v'
p114
I50
sS'grant.v'
p115
I12
sS'kill.v'
p116
I105
sS'propose.v'
p117
I29
sS'area.n'
p118
I240
sS'remember.v'
p119
I120
sS'examine.v'
p120
I15
sS'say.v'
p121
I2113
sS'join.v'
p122
I5
sS'negotiate.v'
p123
I25
sS'maintain.v'
p124
I49
sS'condition.n'
p125
I109
sS'believe.v'
p126
I162
sS'hour.n'
p127
I158
sS'president.n'
p128
I758
ssS'3'
p129
(dp130
S'begin.v'
p131
I1
sS'come.v'
p132
I18
sS'describe.v'
p133
I3
sS'effect.n'
p134
I30
sS'fix.v'
p135
I5
sS'development.n'
p136
I34
sS'chance.n'
p137
I4
sS'point.n'
p138
I18
sS'position.n'
p139
I57
sS'claim.v'
p140
I1
sS'raise.v'
p141
I6
sS'turn.v'
p142
I13
sS'say.v'
p143
I5
sS'regard.v'
p144
I10
sS'complete.v'
p145
I1
sS'lead.v'
p146
I14
sS'prove.v'
p147
I1
sS'kill.v'
p148
I2
sS'source.n'
p149
I56
sS'exchange.n'
p150
I261
sS'future.n'
p151
I269
sS'buy.v'
p152
I4
sS'order.n'
p153
I6
sS'area.n'
p154
I10
sS'work.v'
p155
I3
sS'network.n'
p156
I50
sS'bill.n'
p157
I263
sS'value.n'
p158
I12
sS'do.v'
p159
I1
sS'state.n'
p160
I24
sS'build.v'
p161
I35
sS'examine.v'
p162
I1
sS'care.v'
p163
I7
sS'ask.v'
p164
I4
sS'go.v'
p165
I1
sS'authority.n'
p166
I46
sS'report.v'
p167
I3
sS'recall.v'
p168
I1
sS'see.v'
p169
I71
sS'join.v'
p170
I11
sS'power.n'
p171
I120
sS'capital.n'
p172
I1
sS'find.v'
p173
I14
sS'move.n'
p174
I13
sS'end.v'
p175
I3
sS'start.v'
p176
I21
sS'base.n'
p177
I38
sS'system.n'
p178
I2
sS'feel.v'
p179
I55
sS'keep.v'
p180
I21
sS'hour.n'
p181
I1
sS'hold.v'
p182
I6
sS'set.v'
p183
I38
sS'job.n'
p184
I7
sS'president.n'
p185
I106
ssS'2'
p186
(dp187
S'begin.v'
p188
I42
sS'come.v'
p189
I41
sS'system.n'
p190
I250
sS'explain.v'
p191
I10
sS'remember.v'
p192
I1
sS'describe.v'
p193
I1
sS'effect.n'
p194
I2
sS'fix.v'
p195
I12
sS'development.n'
p196
I5
sS'complain.v'
p197
I1
sS'chance.n'
p198
I2
sS'point.n'
p199
I6
sS'enjoy.v'
p200
I12
sS'occur.v'
p201
I10
sS'allow.v'
p202
I10
sS'claim.v'
p203
I8
sS'plant.n'
p204
I50
sS'end.v'
p205
I33
sS'raise.v'
p206
I32
sS'management.n'
p207
I173
sS'need.v'
p208
I63
sS'people.n'
p209
I55
sS'prove.v'
p210
I24
sS'source.n'
p211
I39
sS'see.v'
p212
I39
sS'rush.v'
p213
I2
sS'regard.v'
p214
I7
sS'exist.v'
p215
I2
sS'space.n'
p216
I32
sS'lead.v'
p217
I36
sS'grant.v'
p218
I7
sS'part.n'
p219
I74
sS'rate.n'
p220
I155
sS'exchange.n'
p221
I3
sS'replace.v'
p222
I2
sS'carrier.n'
p223
I2
sS'value.n'
p224
I299
sS'propose.v'
p225
I5
sS'produce.v'
p226
I16
sS'buy.v'
p227
I1
sS'promise.v'
p228
I6
sS'order.n'
p229
I4
sS'area.n'
p230
I76
sS'work.v'
p231
I49
sS'network.n'
p232
I73
sS'announce.v'
p233
I1
sS'move.n'
p234
I249
sS'do.v'
p235
I15
sS'state.n'
p236
I513
sS'report.v'
p237
I4
sS'build.v'
p238
I6
sS'examine.v'
p239
I10
sS'care.v'
p240
I8
sS'ask.v'
p241
I112
sS'defense.n'
p242
I21
sS'go.v'
p243
I15
sS'turn.v'
p244
I45
sS'receive.v'
p245
I9
sS'recall.v'
p246
I2
sS'drug.n'
p247
I82
sS'say.v'
p248
I4
sS'join.v'
p249
I41
sS'power.n'
p250
I12
sS'capital.n'
p251
I18
sS'find.v'
p252
I2
sS'maintain.v'
p253
I12
sS'approve.v'
p254
I3
sS'condition.n'
p255
I23
sS'believe.v'
p256
I40
sS'base.n'
p257
I1
sS'start.v'
p258
I143
sS'policy.n'
p259
I73
sS'feel.v'
p260
I7
sS'keep.v'
p261
I15
sS'hour.n'
p262
I27
sS'prepare.v'
p263
I28
sS'position.n'
p264
I55
sS'share.n'
p265
I2479
sS'hold.v'
p266
I18
sS'set.v'
p267
I2
sS'job.n'
p268
I41
sS'contribute.v'
p269
I24
sS'president.n'
p270
I15
ssS'5'
p271
(dp272
S'come.v'
p273
I30
sS'fix.v'
p274
I3
sS'point.n'
p275
I67
sS'position.n'
p276
I67
sS'work.v'
p277
I2
sS'raise.v'
p278
I12
sS'turn.v'
p279
I18
sS'say.v'
p280
I2
sS'lead.v'
p281
I26
sS'exchange.n'
p282
I49
sS'space.n'
p283
I2
sS'order.n'
p284
I3
sS'keep.v'
p285
I13
sS'bill.n'
p286
I104
sS'do.v'
p287
I1
sS'ask.v'
p288
I2
sS'defense.n'
p289
I10
sS'go.v'
p290
I3
sS'authority.n'
p291
I4
sS'see.v'
p292
I2
sS'capital.n'
p293
I1
sS'find.v'
p294
I11
sS'people.n'
p295
I7
sS'start.v'
p296
I19
sS'hold.v'
p297
I45
sS'system.n'
p298
I2
sS'part.n'
p299
I12
sS'set.v'
p300
I8
ssS'4'
p301
(dp302
S'begin.v'
p303
I2
sS'come.v'
p304
I3
sS'fix.v'
p305
I9
sS'chance.n'
p306
I39
sS'point.n'
p307
I31
sS'position.n'
p308
I74
sS'work.v'
p309
I4
sS'raise.v'
p310
I19
sS'turn.v'
p311
I18
sS'say.v'
p312
I37
sS'space.n'
p313
I1
sS'lead.v'
p314
I29
sS'kill.v'
p315
I3
sS'source.n'
p316
I15
sS'exchange.n'
p317
I1
sS'carrier.n'
p318
I14
sS'future.n'
p319
I20
sS'buy.v'
p320
I3
sS'order.n'
p321
I2
sS'keep.v'
p322
I25
sS'bill.n'
p323
I37
sS'people.n'
p324
I5
sS'ask.v'
p325
I1
sS'defense.n'
p326
I23
sS'go.v'
p327
I26
sS'authority.n'
p328
I1
sS'see.v'
p329
I9
sS'join.v'
p330
I11
sS'find.v'
p331
I1
sS'move.n'
p332
I4
sS'end.v'
p333
I14
sS'start.v'
p334
I3
sS'hold.v'
p335
I14
sS'system.n'
p336
I66
sS'hour.n'
p337
I1
sS'part.n'
p338
I1
sS'set.v'
p339
I51
ssS'7'
p340
(dp341
S'come.v'
p342
I4
sS'raise.v'
p343
I2
sS'carrier.n'
p344
I4
sS'point.n'
p345
I3
sS'base.n'
p346
I23
sS'start.v'
p347
I1
sS'defense.n'
p348
I35
sS'go.v'
p349
I52
sS'position.n'
p350
I1
sS'turn.v'
p351
I3
sS'set.v'
p352
I3
sS'order.n'
p353
I1
ssS'6'
p354
(dp355
S'set.v'
p356
I34
sS'come.v'
p357
I4
sS'raise.v'
p358
I30
sS'see.v'
p359
I4
sS'carrier.n'
p360
I86
sS'lead.v'
p361
I4
sS'base.n'
p362
I7
sS'point.n'
p363
I2
sS'source.n'
p364
I38
sS'ask.v'
p365
I3
sS'defense.n'
p366
I5
sS'space.n'
p367
I2
sS'position.n'
p368
I7
sS'turn.v'
p369
I32
sS'hold.v'
p370
I5
sS'buy.v'
p371
I27
sS'order.n'
p372
I284
sS'keep.v'
p373
I1
ssS'9'
p374
(dp375
S'come.v'
p376
I4
sS'kill.v'
p377
I1
sS'carrier.n'
p378
I1
sS'go.v'
p379
I2
sS'work.v'
p380
I9
sS'set.v'
p381
I1
ssS'8'
p382
(dp383
S'come.v'
p384
I10
sS'turn.v'
p385
I1
sS'defense.n'
p386
I11
sS'point.n'
p387
I1
sS'hold.v'
p388
I34
sS'carrier.n'
p389
I3
sS'go.v'
p390
I2
sS'work.v'
p391
I14
sS'set.v'
p392
I2
sS'keep.v'
p393
I50
ss.